ARM GAS  C:\Users\Schuyler\AppData\Local\Temp\ccACHcZv.s 			page 1


   1              		.syntax unified
   2              		.cpu cortex-m3
   3              		.fpu softvfp
   4              		.eabi_attribute 20, 1
   5              		.eabi_attribute 21, 1
   6              		.eabi_attribute 23, 3
   7              		.eabi_attribute 24, 1
   8              		.eabi_attribute 25, 1
   9              		.eabi_attribute 26, 1
  10              		.eabi_attribute 30, 6
  11              		.eabi_attribute 34, 1
  12              		.eabi_attribute 18, 4
  13              		.thumb
  14              		.file	"CAN_1_INT.c"
  15              		.text
  16              	.Ltext0:
  17              		.cfi_sections	.debug_frame
  18              		.section	.text.CAN_1_BusOffIsr,"ax",%progbits
  19              		.align	2
  20              		.global	CAN_1_BusOffIsr
  21              		.thumb
  22              		.thumb_func
  23              		.type	CAN_1_BusOffIsr, %function
  24              	CAN_1_BusOffIsr:
  25              	.LFB0:
  26              		.file 1 "Generated_Source\\PSoC5\\CAN_1_INT.c"
   1:Generated_Source\PSoC5/CAN_1_INT.c **** /*******************************************************************************
   2:Generated_Source\PSoC5/CAN_1_INT.c **** * File Name: CAN_1_INT.c
   3:Generated_Source\PSoC5/CAN_1_INT.c **** * Version 3.0
   4:Generated_Source\PSoC5/CAN_1_INT.c **** *
   5:Generated_Source\PSoC5/CAN_1_INT.c **** * Description:
   6:Generated_Source\PSoC5/CAN_1_INT.c **** *  This file contains Interrupt Service Routine (ISR) for CAN Component.
   7:Generated_Source\PSoC5/CAN_1_INT.c **** *  The Interrupt handlers functions are generated accordingly to the PSoC
   8:Generated_Source\PSoC5/CAN_1_INT.c **** *  Creator Customizer inputs.
   9:Generated_Source\PSoC5/CAN_1_INT.c **** *
  10:Generated_Source\PSoC5/CAN_1_INT.c **** * Note:
  11:Generated_Source\PSoC5/CAN_1_INT.c **** *  None
  12:Generated_Source\PSoC5/CAN_1_INT.c **** *
  13:Generated_Source\PSoC5/CAN_1_INT.c **** ********************************************************************************
  14:Generated_Source\PSoC5/CAN_1_INT.c **** * Copyright 2008-2015, Cypress Semiconductor Corporation.  All rights reserved.
  15:Generated_Source\PSoC5/CAN_1_INT.c **** * You may use this file only in accordance with the license, terms, conditions,
  16:Generated_Source\PSoC5/CAN_1_INT.c **** * disclaimers, and limitations in the end user license agreement accompanying
  17:Generated_Source\PSoC5/CAN_1_INT.c **** * the software package with which this file was provided.
  18:Generated_Source\PSoC5/CAN_1_INT.c **** *******************************************************************************/
  19:Generated_Source\PSoC5/CAN_1_INT.c **** 
  20:Generated_Source\PSoC5/CAN_1_INT.c **** #include "CAN_1.h"
  21:Generated_Source\PSoC5/CAN_1_INT.c **** 
  22:Generated_Source\PSoC5/CAN_1_INT.c **** 
  23:Generated_Source\PSoC5/CAN_1_INT.c **** /* `#START CAN_INT_C_CODE_DEFINITION` */
  24:Generated_Source\PSoC5/CAN_1_INT.c **** 
  25:Generated_Source\PSoC5/CAN_1_INT.c **** /* `#END` */
  26:Generated_Source\PSoC5/CAN_1_INT.c **** 
  27:Generated_Source\PSoC5/CAN_1_INT.c **** #if (CAN_1_ARB_LOST)
  28:Generated_Source\PSoC5/CAN_1_INT.c ****     /*******************************************************************************
  29:Generated_Source\PSoC5/CAN_1_INT.c ****     * FUNCTION NAME:   CAN_1_ArbLostIsr
  30:Generated_Source\PSoC5/CAN_1_INT.c ****     ********************************************************************************
  31:Generated_Source\PSoC5/CAN_1_INT.c ****     *
ARM GAS  C:\Users\Schuyler\AppData\Local\Temp\ccACHcZv.s 			page 2


  32:Generated_Source\PSoC5/CAN_1_INT.c ****     * Summary:
  33:Generated_Source\PSoC5/CAN_1_INT.c ****     *  This function is entry point to Arbitration Lost Interrupt. Clears
  34:Generated_Source\PSoC5/CAN_1_INT.c ****     *  Arbitration Lost interrupt flag. Only generated if Arbitration Lost
  35:Generated_Source\PSoC5/CAN_1_INT.c ****     *  Interrupt enable in Customizer.
  36:Generated_Source\PSoC5/CAN_1_INT.c ****     *
  37:Generated_Source\PSoC5/CAN_1_INT.c ****     * Parameters:
  38:Generated_Source\PSoC5/CAN_1_INT.c ****     *  None.
  39:Generated_Source\PSoC5/CAN_1_INT.c ****     *
  40:Generated_Source\PSoC5/CAN_1_INT.c ****     * Return:
  41:Generated_Source\PSoC5/CAN_1_INT.c ****     *  None.
  42:Generated_Source\PSoC5/CAN_1_INT.c ****     *
  43:Generated_Source\PSoC5/CAN_1_INT.c ****     * Reentrant:
  44:Generated_Source\PSoC5/CAN_1_INT.c ****     *  Depends on Customer code.
  45:Generated_Source\PSoC5/CAN_1_INT.c ****     *
  46:Generated_Source\PSoC5/CAN_1_INT.c ****     *******************************************************************************/
  47:Generated_Source\PSoC5/CAN_1_INT.c ****     void CAN_1_ArbLostIsr(void) 
  48:Generated_Source\PSoC5/CAN_1_INT.c ****     {
  49:Generated_Source\PSoC5/CAN_1_INT.c ****         /* Clear Arbitration Lost flag */
  50:Generated_Source\PSoC5/CAN_1_INT.c ****         CAN_1_INT_SR_REG.byte[0u] = CAN_1_ARBITRATION_LOST_MASK;
  51:Generated_Source\PSoC5/CAN_1_INT.c **** 
  52:Generated_Source\PSoC5/CAN_1_INT.c ****         /* `#START ARBITRATION_LOST_ISR` */
  53:Generated_Source\PSoC5/CAN_1_INT.c **** 
  54:Generated_Source\PSoC5/CAN_1_INT.c ****         /* `#END` */
  55:Generated_Source\PSoC5/CAN_1_INT.c **** 
  56:Generated_Source\PSoC5/CAN_1_INT.c ****         #ifdef CAN_1_ARB_LOST_ISR_CALLBACK
  57:Generated_Source\PSoC5/CAN_1_INT.c ****             CAN_1_ArbLostIsr_Callback();
  58:Generated_Source\PSoC5/CAN_1_INT.c ****         #endif /* CAN_1_ARB_LOST_ISR_CALLBACK */
  59:Generated_Source\PSoC5/CAN_1_INT.c ****     }
  60:Generated_Source\PSoC5/CAN_1_INT.c **** #endif /* CAN_1_ARB_LOST */
  61:Generated_Source\PSoC5/CAN_1_INT.c **** 
  62:Generated_Source\PSoC5/CAN_1_INT.c **** 
  63:Generated_Source\PSoC5/CAN_1_INT.c **** #if (CAN_1_OVERLOAD)
  64:Generated_Source\PSoC5/CAN_1_INT.c ****     /*******************************************************************************
  65:Generated_Source\PSoC5/CAN_1_INT.c ****     * FUNCTION NAME:   CAN_1_OvrLdErrorIsr
  66:Generated_Source\PSoC5/CAN_1_INT.c ****     ********************************************************************************
  67:Generated_Source\PSoC5/CAN_1_INT.c ****     *
  68:Generated_Source\PSoC5/CAN_1_INT.c ****     * Summary:
  69:Generated_Source\PSoC5/CAN_1_INT.c ****     *  This function is entry point to Overload Error Interrupt. Clears Overload
  70:Generated_Source\PSoC5/CAN_1_INT.c ****     *  Error interrupt flag. Only generated if Overload Error Interrupt enable
  71:Generated_Source\PSoC5/CAN_1_INT.c ****     *  in Customizer.
  72:Generated_Source\PSoC5/CAN_1_INT.c ****     *
  73:Generated_Source\PSoC5/CAN_1_INT.c ****     * Parameters:
  74:Generated_Source\PSoC5/CAN_1_INT.c ****     *  None.
  75:Generated_Source\PSoC5/CAN_1_INT.c ****     *
  76:Generated_Source\PSoC5/CAN_1_INT.c ****     * Return:
  77:Generated_Source\PSoC5/CAN_1_INT.c ****     *  None.
  78:Generated_Source\PSoC5/CAN_1_INT.c ****     *
  79:Generated_Source\PSoC5/CAN_1_INT.c ****     * Reentrant:
  80:Generated_Source\PSoC5/CAN_1_INT.c ****     *  Depends on Customer code.
  81:Generated_Source\PSoC5/CAN_1_INT.c ****     *
  82:Generated_Source\PSoC5/CAN_1_INT.c ****     *******************************************************************************/
  83:Generated_Source\PSoC5/CAN_1_INT.c ****     void CAN_1_OvrLdErrorIsr(void) 
  84:Generated_Source\PSoC5/CAN_1_INT.c ****     {
  85:Generated_Source\PSoC5/CAN_1_INT.c ****         /* Clear Overload Error flag */
  86:Generated_Source\PSoC5/CAN_1_INT.c ****         CAN_1_INT_SR_REG.byte[0u] = CAN_1_OVERLOAD_ERROR_MASK;
  87:Generated_Source\PSoC5/CAN_1_INT.c **** 
  88:Generated_Source\PSoC5/CAN_1_INT.c ****         /* `#START OVER_LOAD_ERROR_ISR` */
ARM GAS  C:\Users\Schuyler\AppData\Local\Temp\ccACHcZv.s 			page 3


  89:Generated_Source\PSoC5/CAN_1_INT.c **** 
  90:Generated_Source\PSoC5/CAN_1_INT.c ****         /* `#END` */
  91:Generated_Source\PSoC5/CAN_1_INT.c **** 
  92:Generated_Source\PSoC5/CAN_1_INT.c ****         #ifdef CAN_1_OVR_LD_ERROR_ISR_CALLBACK
  93:Generated_Source\PSoC5/CAN_1_INT.c ****             CAN_1_OvrLdErrorIsr_Callback();
  94:Generated_Source\PSoC5/CAN_1_INT.c ****         #endif /* CAN_1_OVR_LD_ERROR_ISR_CALLBACK */
  95:Generated_Source\PSoC5/CAN_1_INT.c ****     }
  96:Generated_Source\PSoC5/CAN_1_INT.c **** #endif /* CAN_1_OVERLOAD */
  97:Generated_Source\PSoC5/CAN_1_INT.c **** 
  98:Generated_Source\PSoC5/CAN_1_INT.c **** 
  99:Generated_Source\PSoC5/CAN_1_INT.c **** #if (CAN_1_BIT_ERR)
 100:Generated_Source\PSoC5/CAN_1_INT.c ****     /*******************************************************************************
 101:Generated_Source\PSoC5/CAN_1_INT.c ****     * FUNCTION NAME:   CAN_1_BitErrorIsr
 102:Generated_Source\PSoC5/CAN_1_INT.c ****     ********************************************************************************
 103:Generated_Source\PSoC5/CAN_1_INT.c ****     *
 104:Generated_Source\PSoC5/CAN_1_INT.c ****     * Summary:
 105:Generated_Source\PSoC5/CAN_1_INT.c ****     *  This function is entry point to Bit Error Interrupt. Clears Bit Error
 106:Generated_Source\PSoC5/CAN_1_INT.c ****     *  interrupt flag. Only generated if Bit Error Interrupt enable in Customizer.
 107:Generated_Source\PSoC5/CAN_1_INT.c ****     *
 108:Generated_Source\PSoC5/CAN_1_INT.c ****     * Parameters:
 109:Generated_Source\PSoC5/CAN_1_INT.c ****     *  None.
 110:Generated_Source\PSoC5/CAN_1_INT.c ****     *
 111:Generated_Source\PSoC5/CAN_1_INT.c ****     * Return:
 112:Generated_Source\PSoC5/CAN_1_INT.c ****     *  None.
 113:Generated_Source\PSoC5/CAN_1_INT.c ****     *
 114:Generated_Source\PSoC5/CAN_1_INT.c ****     * Reentrant:
 115:Generated_Source\PSoC5/CAN_1_INT.c ****     *  Depends on Customer code.
 116:Generated_Source\PSoC5/CAN_1_INT.c ****     *
 117:Generated_Source\PSoC5/CAN_1_INT.c ****     *******************************************************************************/
 118:Generated_Source\PSoC5/CAN_1_INT.c ****     void CAN_1_BitErrorIsr(void) 
 119:Generated_Source\PSoC5/CAN_1_INT.c ****     {
 120:Generated_Source\PSoC5/CAN_1_INT.c ****         /* Clear Bit Error flag */
 121:Generated_Source\PSoC5/CAN_1_INT.c ****         CAN_1_INT_SR_REG.byte[0u] = CAN_1_BIT_ERROR_MASK;
 122:Generated_Source\PSoC5/CAN_1_INT.c **** 
 123:Generated_Source\PSoC5/CAN_1_INT.c ****         /* `#START BIT_ERROR_ISR` */
 124:Generated_Source\PSoC5/CAN_1_INT.c **** 
 125:Generated_Source\PSoC5/CAN_1_INT.c ****         /* `#END` */
 126:Generated_Source\PSoC5/CAN_1_INT.c **** 
 127:Generated_Source\PSoC5/CAN_1_INT.c ****         #ifdef CAN_1_BIT_ERROR_ISR_CALLBACK
 128:Generated_Source\PSoC5/CAN_1_INT.c ****             CAN_1_BitErrorIsr_Callback();
 129:Generated_Source\PSoC5/CAN_1_INT.c ****         #endif /* CAN_1_BIT_ERROR_ISR_CALLBACK */
 130:Generated_Source\PSoC5/CAN_1_INT.c ****     }
 131:Generated_Source\PSoC5/CAN_1_INT.c **** #endif /* CAN_1_BIT_ERR */
 132:Generated_Source\PSoC5/CAN_1_INT.c **** 
 133:Generated_Source\PSoC5/CAN_1_INT.c **** 
 134:Generated_Source\PSoC5/CAN_1_INT.c **** #if (CAN_1_STUFF_ERR)
 135:Generated_Source\PSoC5/CAN_1_INT.c ****     /*******************************************************************************
 136:Generated_Source\PSoC5/CAN_1_INT.c ****     * FUNCTION NAME:   CAN_1_BitStuffErrorIsr
 137:Generated_Source\PSoC5/CAN_1_INT.c ****     ********************************************************************************
 138:Generated_Source\PSoC5/CAN_1_INT.c ****     *
 139:Generated_Source\PSoC5/CAN_1_INT.c ****     * Summary:
 140:Generated_Source\PSoC5/CAN_1_INT.c ****     *  This function is entry point to Bit Stuff Error Interrupt. Clears Bit Stuff
 141:Generated_Source\PSoC5/CAN_1_INT.c ****     *  Error interrupt flag. Only generated if Bit Stuff Error Interrupt enable
 142:Generated_Source\PSoC5/CAN_1_INT.c ****     *  in Customizer.
 143:Generated_Source\PSoC5/CAN_1_INT.c ****     *
 144:Generated_Source\PSoC5/CAN_1_INT.c ****     * Parameters:
 145:Generated_Source\PSoC5/CAN_1_INT.c ****     *  None.
ARM GAS  C:\Users\Schuyler\AppData\Local\Temp\ccACHcZv.s 			page 4


 146:Generated_Source\PSoC5/CAN_1_INT.c ****     *
 147:Generated_Source\PSoC5/CAN_1_INT.c ****     * Return:
 148:Generated_Source\PSoC5/CAN_1_INT.c ****     *  None.
 149:Generated_Source\PSoC5/CAN_1_INT.c ****     *
 150:Generated_Source\PSoC5/CAN_1_INT.c ****     * Reentrant:
 151:Generated_Source\PSoC5/CAN_1_INT.c ****     *  Depends on Customer code.
 152:Generated_Source\PSoC5/CAN_1_INT.c ****     *
 153:Generated_Source\PSoC5/CAN_1_INT.c ****     *******************************************************************************/
 154:Generated_Source\PSoC5/CAN_1_INT.c ****     void CAN_1_BitStuffErrorIsr(void) 
 155:Generated_Source\PSoC5/CAN_1_INT.c ****     {
 156:Generated_Source\PSoC5/CAN_1_INT.c ****         /* Clear Stuff Error flag */
 157:Generated_Source\PSoC5/CAN_1_INT.c ****         CAN_1_INT_SR_REG.byte[0u] = CAN_1_STUFF_ERROR_MASK;
 158:Generated_Source\PSoC5/CAN_1_INT.c **** 
 159:Generated_Source\PSoC5/CAN_1_INT.c ****         /* `#START BIT_STUFF_ERROR_ISR` */
 160:Generated_Source\PSoC5/CAN_1_INT.c **** 
 161:Generated_Source\PSoC5/CAN_1_INT.c ****         /* `#END` */
 162:Generated_Source\PSoC5/CAN_1_INT.c **** 
 163:Generated_Source\PSoC5/CAN_1_INT.c ****         #ifdef CAN_1_BIT_STUFF_ERROR_ISR_CALLBACK
 164:Generated_Source\PSoC5/CAN_1_INT.c ****             CAN_1_BitStuffErrorIsr_Callback();
 165:Generated_Source\PSoC5/CAN_1_INT.c ****         #endif /* CAN_1_BIT_STUFF_ERROR_ISR_CALLBACK */
 166:Generated_Source\PSoC5/CAN_1_INT.c ****     }
 167:Generated_Source\PSoC5/CAN_1_INT.c **** #endif /* CAN_1_STUFF_ERR */
 168:Generated_Source\PSoC5/CAN_1_INT.c **** 
 169:Generated_Source\PSoC5/CAN_1_INT.c **** 
 170:Generated_Source\PSoC5/CAN_1_INT.c **** #if (CAN_1_ACK_ERR)
 171:Generated_Source\PSoC5/CAN_1_INT.c ****     /*******************************************************************************
 172:Generated_Source\PSoC5/CAN_1_INT.c ****     * FUNCTION NAME:   CAN_1_AckErrorIsr
 173:Generated_Source\PSoC5/CAN_1_INT.c ****     ********************************************************************************
 174:Generated_Source\PSoC5/CAN_1_INT.c ****     *
 175:Generated_Source\PSoC5/CAN_1_INT.c ****     * Summary:
 176:Generated_Source\PSoC5/CAN_1_INT.c ****     *  This function is entry point to Acknowledge Error Interrupt. Clears
 177:Generated_Source\PSoC5/CAN_1_INT.c ****     *  Acknowledge Error interrupt flag. Only generated if Acknowledge Error
 178:Generated_Source\PSoC5/CAN_1_INT.c ****     *  Interrupt enable in Customizer.
 179:Generated_Source\PSoC5/CAN_1_INT.c ****     *
 180:Generated_Source\PSoC5/CAN_1_INT.c ****     * Parameters:
 181:Generated_Source\PSoC5/CAN_1_INT.c ****     *  None.
 182:Generated_Source\PSoC5/CAN_1_INT.c ****     *
 183:Generated_Source\PSoC5/CAN_1_INT.c ****     * Return:
 184:Generated_Source\PSoC5/CAN_1_INT.c ****     *  None.
 185:Generated_Source\PSoC5/CAN_1_INT.c ****     *
 186:Generated_Source\PSoC5/CAN_1_INT.c ****     * Reentrant:
 187:Generated_Source\PSoC5/CAN_1_INT.c ****     *  Depends on Customer code.
 188:Generated_Source\PSoC5/CAN_1_INT.c ****     *
 189:Generated_Source\PSoC5/CAN_1_INT.c ****     *******************************************************************************/
 190:Generated_Source\PSoC5/CAN_1_INT.c ****     void CAN_1_AckErrorIsr(void) 
 191:Generated_Source\PSoC5/CAN_1_INT.c ****     {
 192:Generated_Source\PSoC5/CAN_1_INT.c ****         /* Clear Acknoledge Error flag */
 193:Generated_Source\PSoC5/CAN_1_INT.c ****         CAN_1_INT_SR_REG.byte[0u] = CAN_1_ACK_ERROR_MASK;
 194:Generated_Source\PSoC5/CAN_1_INT.c **** 
 195:Generated_Source\PSoC5/CAN_1_INT.c ****         /* `#START ACKNOWLEDGE_ERROR_ISR` */
 196:Generated_Source\PSoC5/CAN_1_INT.c **** 
 197:Generated_Source\PSoC5/CAN_1_INT.c ****         /* `#END` */
 198:Generated_Source\PSoC5/CAN_1_INT.c **** 
 199:Generated_Source\PSoC5/CAN_1_INT.c ****         #ifdef CAN_1_ACK_ERROR_ISR_CALLBACK
 200:Generated_Source\PSoC5/CAN_1_INT.c ****             CAN_1_AckErrorIsr_Callback();
 201:Generated_Source\PSoC5/CAN_1_INT.c ****         #endif /* CAN_1_ACK_ERROR_ISR_CALLBACK */
 202:Generated_Source\PSoC5/CAN_1_INT.c ****     }
ARM GAS  C:\Users\Schuyler\AppData\Local\Temp\ccACHcZv.s 			page 5


 203:Generated_Source\PSoC5/CAN_1_INT.c **** #endif /* CAN_1_ACK_ERR */
 204:Generated_Source\PSoC5/CAN_1_INT.c **** 
 205:Generated_Source\PSoC5/CAN_1_INT.c **** 
 206:Generated_Source\PSoC5/CAN_1_INT.c **** #if (CAN_1_FORM_ERR)
 207:Generated_Source\PSoC5/CAN_1_INT.c ****     /*******************************************************************************
 208:Generated_Source\PSoC5/CAN_1_INT.c ****     * FUNCTION NAME:   CAN_1_MsgErrorIsr
 209:Generated_Source\PSoC5/CAN_1_INT.c ****     ********************************************************************************
 210:Generated_Source\PSoC5/CAN_1_INT.c ****     *
 211:Generated_Source\PSoC5/CAN_1_INT.c ****     * Summary:
 212:Generated_Source\PSoC5/CAN_1_INT.c ****     *  This function is entry point to Form Error Interrupt. Clears Form Error
 213:Generated_Source\PSoC5/CAN_1_INT.c ****     *  interrupt flag. Only generated if Form Error Interrupt enable in Customizer.
 214:Generated_Source\PSoC5/CAN_1_INT.c ****     *
 215:Generated_Source\PSoC5/CAN_1_INT.c ****     * Parameters:
 216:Generated_Source\PSoC5/CAN_1_INT.c ****     *  None.
 217:Generated_Source\PSoC5/CAN_1_INT.c ****     *
 218:Generated_Source\PSoC5/CAN_1_INT.c ****     * Return:
 219:Generated_Source\PSoC5/CAN_1_INT.c ****     *  None.
 220:Generated_Source\PSoC5/CAN_1_INT.c ****     *
 221:Generated_Source\PSoC5/CAN_1_INT.c ****     * Reentrant:
 222:Generated_Source\PSoC5/CAN_1_INT.c ****     *  Depends on Customer code.
 223:Generated_Source\PSoC5/CAN_1_INT.c ****     *
 224:Generated_Source\PSoC5/CAN_1_INT.c ****     *******************************************************************************/
 225:Generated_Source\PSoC5/CAN_1_INT.c ****     void CAN_1_MsgErrorIsr(void) 
 226:Generated_Source\PSoC5/CAN_1_INT.c ****     {
 227:Generated_Source\PSoC5/CAN_1_INT.c ****         /* Clear Form Error flag */
 228:Generated_Source\PSoC5/CAN_1_INT.c ****         CAN_1_INT_SR_REG.byte[0u] = CAN_1_FORM_ERROR_MASK;
 229:Generated_Source\PSoC5/CAN_1_INT.c **** 
 230:Generated_Source\PSoC5/CAN_1_INT.c ****         /* `#START MESSAGE_ERROR_ISR` */
 231:Generated_Source\PSoC5/CAN_1_INT.c **** 
 232:Generated_Source\PSoC5/CAN_1_INT.c ****         /* `#END` */
 233:Generated_Source\PSoC5/CAN_1_INT.c **** 
 234:Generated_Source\PSoC5/CAN_1_INT.c ****         #ifdef CAN_1_MSG_ERROR_ISR_CALLBACK
 235:Generated_Source\PSoC5/CAN_1_INT.c ****             CAN_1_MsgErrorIsr_Callback();
 236:Generated_Source\PSoC5/CAN_1_INT.c ****         #endif /* CAN_1_MSG_ERROR_ISR_CALLBACK */
 237:Generated_Source\PSoC5/CAN_1_INT.c ****     }
 238:Generated_Source\PSoC5/CAN_1_INT.c **** #endif /* CAN_1_FORM_ERR */
 239:Generated_Source\PSoC5/CAN_1_INT.c **** 
 240:Generated_Source\PSoC5/CAN_1_INT.c **** 
 241:Generated_Source\PSoC5/CAN_1_INT.c **** #if (CAN_1_CRC_ERR)
 242:Generated_Source\PSoC5/CAN_1_INT.c ****     /*******************************************************************************
 243:Generated_Source\PSoC5/CAN_1_INT.c ****     * FUNCTION NAME:   CAN_1_CrcErrorIsr
 244:Generated_Source\PSoC5/CAN_1_INT.c ****     ********************************************************************************
 245:Generated_Source\PSoC5/CAN_1_INT.c ****     *
 246:Generated_Source\PSoC5/CAN_1_INT.c ****     * Summary:
 247:Generated_Source\PSoC5/CAN_1_INT.c ****     *  This function is entry point to CRC Error Interrupt. Clears CRC Error
 248:Generated_Source\PSoC5/CAN_1_INT.c ****     *  interrupt flag. Only generated if CRC Error Interrupt enable in Customizer.
 249:Generated_Source\PSoC5/CAN_1_INT.c ****     *
 250:Generated_Source\PSoC5/CAN_1_INT.c ****     * Parameters:
 251:Generated_Source\PSoC5/CAN_1_INT.c ****     *  None.
 252:Generated_Source\PSoC5/CAN_1_INT.c ****     *
 253:Generated_Source\PSoC5/CAN_1_INT.c ****     * Return:
 254:Generated_Source\PSoC5/CAN_1_INT.c ****     *  None.
 255:Generated_Source\PSoC5/CAN_1_INT.c ****     *
 256:Generated_Source\PSoC5/CAN_1_INT.c ****     * Reentrant:
 257:Generated_Source\PSoC5/CAN_1_INT.c ****     *  Depends on Customer code.
 258:Generated_Source\PSoC5/CAN_1_INT.c ****     *
 259:Generated_Source\PSoC5/CAN_1_INT.c ****     *******************************************************************************/
ARM GAS  C:\Users\Schuyler\AppData\Local\Temp\ccACHcZv.s 			page 6


 260:Generated_Source\PSoC5/CAN_1_INT.c ****     void CAN_1_CrcErrorIsr(void) 
 261:Generated_Source\PSoC5/CAN_1_INT.c ****     {
 262:Generated_Source\PSoC5/CAN_1_INT.c ****         /* Clear CRC Error flag */
 263:Generated_Source\PSoC5/CAN_1_INT.c ****         CAN_1_INT_SR_REG.byte[1u] = CAN_1_CRC_ERROR_MASK;
 264:Generated_Source\PSoC5/CAN_1_INT.c **** 
 265:Generated_Source\PSoC5/CAN_1_INT.c ****         /* `#START CRC_ERROR_ISR` */
 266:Generated_Source\PSoC5/CAN_1_INT.c **** 
 267:Generated_Source\PSoC5/CAN_1_INT.c ****         /* `#END` */
 268:Generated_Source\PSoC5/CAN_1_INT.c **** 
 269:Generated_Source\PSoC5/CAN_1_INT.c ****         #ifdef CAN_1_CRC_ERROR_ISR_CALLBACK
 270:Generated_Source\PSoC5/CAN_1_INT.c ****             CAN_1_CrcErrorIsr_Callback();
 271:Generated_Source\PSoC5/CAN_1_INT.c ****         #endif /* CAN_1_CRC_ERROR_ISR_CALLBACK */
 272:Generated_Source\PSoC5/CAN_1_INT.c ****     }
 273:Generated_Source\PSoC5/CAN_1_INT.c **** #endif /* CAN_1_CRC_ERR */
 274:Generated_Source\PSoC5/CAN_1_INT.c **** 
 275:Generated_Source\PSoC5/CAN_1_INT.c **** 
 276:Generated_Source\PSoC5/CAN_1_INT.c **** #if (CAN_1_BUS_OFF)
 277:Generated_Source\PSoC5/CAN_1_INT.c ****     /*******************************************************************************
 278:Generated_Source\PSoC5/CAN_1_INT.c ****     * FUNCTION NAME:   CAN_1_BusOffIsr
 279:Generated_Source\PSoC5/CAN_1_INT.c ****     ********************************************************************************
 280:Generated_Source\PSoC5/CAN_1_INT.c ****     *
 281:Generated_Source\PSoC5/CAN_1_INT.c ****     * Summary:
 282:Generated_Source\PSoC5/CAN_1_INT.c ****     *  This function is entry point to Bus Off Interrupt. Places CAN Component
 283:Generated_Source\PSoC5/CAN_1_INT.c ****     *  to Stop mode. Only generated if Bus Off Interrupt enable in Customizer.
 284:Generated_Source\PSoC5/CAN_1_INT.c ****     *  Recommended setting to enable this interrupt.
 285:Generated_Source\PSoC5/CAN_1_INT.c ****     *
 286:Generated_Source\PSoC5/CAN_1_INT.c ****     * Parameters:
 287:Generated_Source\PSoC5/CAN_1_INT.c ****     *  None.
 288:Generated_Source\PSoC5/CAN_1_INT.c ****     *
 289:Generated_Source\PSoC5/CAN_1_INT.c ****     * Return:
 290:Generated_Source\PSoC5/CAN_1_INT.c ****     *  None.
 291:Generated_Source\PSoC5/CAN_1_INT.c ****     *
 292:Generated_Source\PSoC5/CAN_1_INT.c ****     * Side Effects:
 293:Generated_Source\PSoC5/CAN_1_INT.c ****     *  Stops CAN component operation.
 294:Generated_Source\PSoC5/CAN_1_INT.c ****     *
 295:Generated_Source\PSoC5/CAN_1_INT.c ****     *******************************************************************************/
 296:Generated_Source\PSoC5/CAN_1_INT.c ****     void CAN_1_BusOffIsr(void) 
 297:Generated_Source\PSoC5/CAN_1_INT.c ****     {
  27              		.loc 1 297 0
  28              		.cfi_startproc
  29              		@ args = 0, pretend = 0, frame = 0
  30              		@ frame_needed = 1, uses_anonymous_args = 0
  31 0000 80B5     		push	{r7, lr}
  32              		.cfi_def_cfa_offset 8
  33              		.cfi_offset 7, -8
  34              		.cfi_offset 14, -4
  35 0002 00AF     		add	r7, sp, #0
  36              		.cfi_def_cfa_register 7
 298:Generated_Source\PSoC5/CAN_1_INT.c ****         /* Clear Bus Off flag */
 299:Generated_Source\PSoC5/CAN_1_INT.c ****         CAN_1_INT_SR_REG.byte[1u] = CAN_1_BUS_OFF_MASK;
  37              		.loc 1 299 0
  38 0004 034B     		ldr	r3, .L2
  39 0006 0222     		movs	r2, #2
  40 0008 5A70     		strb	r2, [r3, #1]
 300:Generated_Source\PSoC5/CAN_1_INT.c ****         (void) CAN_1_GlobalIntDisable();
  41              		.loc 1 300 0
  42 000a FFF7FEFF 		bl	CAN_1_GlobalIntDisable
ARM GAS  C:\Users\Schuyler\AppData\Local\Temp\ccACHcZv.s 			page 7


 301:Generated_Source\PSoC5/CAN_1_INT.c **** 
 302:Generated_Source\PSoC5/CAN_1_INT.c ****         /* `#START BUS_OFF_ISR` */
 303:Generated_Source\PSoC5/CAN_1_INT.c **** 
 304:Generated_Source\PSoC5/CAN_1_INT.c ****         /* `#END` */
 305:Generated_Source\PSoC5/CAN_1_INT.c **** 
 306:Generated_Source\PSoC5/CAN_1_INT.c ****         #ifdef CAN_1_BUS_OFF_ISR_CALLBACK
 307:Generated_Source\PSoC5/CAN_1_INT.c ****             CAN_1_BusOffIsr_Callback();
 308:Generated_Source\PSoC5/CAN_1_INT.c ****         #endif /* CAN_1_BUS_OFF_ISR_CALLBACK */
 309:Generated_Source\PSoC5/CAN_1_INT.c **** 
 310:Generated_Source\PSoC5/CAN_1_INT.c ****         (void) CAN_1_Stop();
  43              		.loc 1 310 0
  44 000e FFF7FEFF 		bl	CAN_1_Stop
 311:Generated_Source\PSoC5/CAN_1_INT.c ****     }
  45              		.loc 1 311 0
  46 0012 80BD     		pop	{r7, pc}
  47              	.L3:
  48              		.align	2
  49              	.L2:
  50 0014 00A00040 		.word	1073782784
  51              		.cfi_endproc
  52              	.LFE0:
  53              		.size	CAN_1_BusOffIsr, .-CAN_1_BusOffIsr
  54              		.section	.text.CAN_1_MsgRXIsr,"ax",%progbits
  55              		.align	2
  56              		.global	CAN_1_MsgRXIsr
  57              		.thumb
  58              		.thumb_func
  59              		.type	CAN_1_MsgRXIsr, %function
  60              	CAN_1_MsgRXIsr:
  61              	.LFB1:
 312:Generated_Source\PSoC5/CAN_1_INT.c **** #endif /* CAN_1_BUS_OFF */
 313:Generated_Source\PSoC5/CAN_1_INT.c **** 
 314:Generated_Source\PSoC5/CAN_1_INT.c **** 
 315:Generated_Source\PSoC5/CAN_1_INT.c **** #if (CAN_1_RX_MSG_LOST)
 316:Generated_Source\PSoC5/CAN_1_INT.c ****     /*******************************************************************************
 317:Generated_Source\PSoC5/CAN_1_INT.c ****     * FUNCTION NAME:   CAN_1_MsgLostIsr
 318:Generated_Source\PSoC5/CAN_1_INT.c ****     ********************************************************************************
 319:Generated_Source\PSoC5/CAN_1_INT.c ****     *
 320:Generated_Source\PSoC5/CAN_1_INT.c ****     * Summary:
 321:Generated_Source\PSoC5/CAN_1_INT.c ****     *  This function is entry point to Message Lost Interrupt. Clears Message Lost
 322:Generated_Source\PSoC5/CAN_1_INT.c ****     *  interrupt flag. Only generated if Message Lost Interrupt enable in Customizer
 323:Generated_Source\PSoC5/CAN_1_INT.c ****     *
 324:Generated_Source\PSoC5/CAN_1_INT.c ****     * Parameters:
 325:Generated_Source\PSoC5/CAN_1_INT.c ****     *  None.
 326:Generated_Source\PSoC5/CAN_1_INT.c ****     *
 327:Generated_Source\PSoC5/CAN_1_INT.c ****     * Return:
 328:Generated_Source\PSoC5/CAN_1_INT.c ****     *  None.
 329:Generated_Source\PSoC5/CAN_1_INT.c ****     *
 330:Generated_Source\PSoC5/CAN_1_INT.c ****     * Reentrant:
 331:Generated_Source\PSoC5/CAN_1_INT.c ****     *  Depends on Customer code.
 332:Generated_Source\PSoC5/CAN_1_INT.c ****     *
 333:Generated_Source\PSoC5/CAN_1_INT.c ****     *******************************************************************************/
 334:Generated_Source\PSoC5/CAN_1_INT.c ****     void CAN_1_MsgLostIsr(void) 
 335:Generated_Source\PSoC5/CAN_1_INT.c ****     {
 336:Generated_Source\PSoC5/CAN_1_INT.c ****         /* Clear Receive Message Lost flag */
 337:Generated_Source\PSoC5/CAN_1_INT.c ****         CAN_1_INT_SR_REG.byte[1u] = CAN_1_RX_MSG_LOST_MASK;
 338:Generated_Source\PSoC5/CAN_1_INT.c **** 
ARM GAS  C:\Users\Schuyler\AppData\Local\Temp\ccACHcZv.s 			page 8


 339:Generated_Source\PSoC5/CAN_1_INT.c ****         /* `#START MESSAGE_LOST_ISR` */
 340:Generated_Source\PSoC5/CAN_1_INT.c **** 
 341:Generated_Source\PSoC5/CAN_1_INT.c ****         /* `#END` */
 342:Generated_Source\PSoC5/CAN_1_INT.c **** 
 343:Generated_Source\PSoC5/CAN_1_INT.c ****         #ifdef CAN_1_MSG_LOST_ISR_CALLBACK
 344:Generated_Source\PSoC5/CAN_1_INT.c ****             CAN_1_MsgLostIsr_Callback();
 345:Generated_Source\PSoC5/CAN_1_INT.c ****         #endif /* CAN_1_MSG_LOST_ISR_CALLBACK */
 346:Generated_Source\PSoC5/CAN_1_INT.c ****     }
 347:Generated_Source\PSoC5/CAN_1_INT.c **** #endif /* CAN_1_RX_MSG_LOST */
 348:Generated_Source\PSoC5/CAN_1_INT.c **** 
 349:Generated_Source\PSoC5/CAN_1_INT.c **** 
 350:Generated_Source\PSoC5/CAN_1_INT.c **** #if (CAN_1_TX_MESSAGE)
 351:Generated_Source\PSoC5/CAN_1_INT.c ****     /*******************************************************************************
 352:Generated_Source\PSoC5/CAN_1_INT.c ****     * FUNCTION NAME:   CAN_1_MsgTXIsr
 353:Generated_Source\PSoC5/CAN_1_INT.c ****     ********************************************************************************
 354:Generated_Source\PSoC5/CAN_1_INT.c ****     *
 355:Generated_Source\PSoC5/CAN_1_INT.c ****     * Summary:
 356:Generated_Source\PSoC5/CAN_1_INT.c ****     *  This function is entry point to Transmit Message Interrupt. Clears Transmit
 357:Generated_Source\PSoC5/CAN_1_INT.c ****     *  Message interrupt flag. Only generated if Transmit Message Interrupt enable
 358:Generated_Source\PSoC5/CAN_1_INT.c ****     *  in Customizer.
 359:Generated_Source\PSoC5/CAN_1_INT.c ****     *
 360:Generated_Source\PSoC5/CAN_1_INT.c ****     * Parameters:
 361:Generated_Source\PSoC5/CAN_1_INT.c ****     *  None.
 362:Generated_Source\PSoC5/CAN_1_INT.c ****     *
 363:Generated_Source\PSoC5/CAN_1_INT.c ****     * Return:
 364:Generated_Source\PSoC5/CAN_1_INT.c ****     *  None.
 365:Generated_Source\PSoC5/CAN_1_INT.c ****     *
 366:Generated_Source\PSoC5/CAN_1_INT.c ****     * Reentrant:
 367:Generated_Source\PSoC5/CAN_1_INT.c ****     *  Depends on Customer code.
 368:Generated_Source\PSoC5/CAN_1_INT.c ****     *
 369:Generated_Source\PSoC5/CAN_1_INT.c ****     *******************************************************************************/
 370:Generated_Source\PSoC5/CAN_1_INT.c ****     void CAN_1_MsgTXIsr(void) 
 371:Generated_Source\PSoC5/CAN_1_INT.c ****     {
 372:Generated_Source\PSoC5/CAN_1_INT.c ****         /* Clear Transmit Message flag */
 373:Generated_Source\PSoC5/CAN_1_INT.c ****         CAN_1_INT_SR_REG.byte[1u] = CAN_1_TX_MESSAGE_MASK;
 374:Generated_Source\PSoC5/CAN_1_INT.c **** 
 375:Generated_Source\PSoC5/CAN_1_INT.c ****         /* `#START MESSAGE_TRANSMITTED_ISR` */
 376:Generated_Source\PSoC5/CAN_1_INT.c **** 
 377:Generated_Source\PSoC5/CAN_1_INT.c ****         /* `#END` */
 378:Generated_Source\PSoC5/CAN_1_INT.c **** 
 379:Generated_Source\PSoC5/CAN_1_INT.c ****         #ifdef CAN_1_MSG_TX_ISR_CALLBACK
 380:Generated_Source\PSoC5/CAN_1_INT.c ****             CAN_1_MsgTXIsr_Callback();
 381:Generated_Source\PSoC5/CAN_1_INT.c ****         #endif /* CAN_1_MSG_TX_ISR_CALLBACK */
 382:Generated_Source\PSoC5/CAN_1_INT.c ****     }
 383:Generated_Source\PSoC5/CAN_1_INT.c **** #endif /* CAN_1_TX_MESSAGE */
 384:Generated_Source\PSoC5/CAN_1_INT.c **** 
 385:Generated_Source\PSoC5/CAN_1_INT.c **** 
 386:Generated_Source\PSoC5/CAN_1_INT.c **** #if (CAN_1_RX_MESSAGE)
 387:Generated_Source\PSoC5/CAN_1_INT.c ****     /*******************************************************************************
 388:Generated_Source\PSoC5/CAN_1_INT.c ****     * FUNCTION NAME:   CAN_1_MsgRXIsr
 389:Generated_Source\PSoC5/CAN_1_INT.c ****     ********************************************************************************
 390:Generated_Source\PSoC5/CAN_1_INT.c ****     *
 391:Generated_Source\PSoC5/CAN_1_INT.c ****     * Summary:
 392:Generated_Source\PSoC5/CAN_1_INT.c ****     *  This function is entry point to Receive Message Interrupt. Clears Receive
 393:Generated_Source\PSoC5/CAN_1_INT.c ****     *  Message interrupt flag and call appropriate handlers for Basic and Full
 394:Generated_Source\PSoC5/CAN_1_INT.c ****     *  interrupt based mailboxes. Only generated if Receive Message Interrupt
 395:Generated_Source\PSoC5/CAN_1_INT.c ****     *  enable in Customizer. Recommended setting to enable this interrupt.
ARM GAS  C:\Users\Schuyler\AppData\Local\Temp\ccACHcZv.s 			page 9


 396:Generated_Source\PSoC5/CAN_1_INT.c ****     *
 397:Generated_Source\PSoC5/CAN_1_INT.c ****     * Parameters:
 398:Generated_Source\PSoC5/CAN_1_INT.c ****     *  None.
 399:Generated_Source\PSoC5/CAN_1_INT.c ****     *
 400:Generated_Source\PSoC5/CAN_1_INT.c ****     * Return:
 401:Generated_Source\PSoC5/CAN_1_INT.c ****     *  None.
 402:Generated_Source\PSoC5/CAN_1_INT.c ****     *
 403:Generated_Source\PSoC5/CAN_1_INT.c ****     *******************************************************************************/
 404:Generated_Source\PSoC5/CAN_1_INT.c ****     void CAN_1_MsgRXIsr(void) 
 405:Generated_Source\PSoC5/CAN_1_INT.c ****     {
  62              		.loc 1 405 0
  63              		.cfi_startproc
  64              		@ args = 0, pretend = 0, frame = 8
  65              		@ frame_needed = 1, uses_anonymous_args = 0
  66 0000 80B5     		push	{r7, lr}
  67              		.cfi_def_cfa_offset 8
  68              		.cfi_offset 7, -8
  69              		.cfi_offset 14, -4
  70 0002 82B0     		sub	sp, sp, #8
  71              		.cfi_def_cfa_offset 16
  72 0004 00AF     		add	r7, sp, #0
  73              		.cfi_def_cfa_register 7
 406:Generated_Source\PSoC5/CAN_1_INT.c ****         uint8 mailboxNumber;
 407:Generated_Source\PSoC5/CAN_1_INT.c ****         uint16 shift = 0x01u;
  74              		.loc 1 407 0
  75 0006 0123     		movs	r3, #1
  76 0008 BB80     		strh	r3, [r7, #4]	@ movhi
 408:Generated_Source\PSoC5/CAN_1_INT.c **** 
 409:Generated_Source\PSoC5/CAN_1_INT.c ****         /* Clear Receive Message flag */
 410:Generated_Source\PSoC5/CAN_1_INT.c ****         CAN_1_INT_SR_REG.byte[1u] = CAN_1_RX_MESSAGE_MASK;
  77              		.loc 1 410 0
  78 000a 1D4B     		ldr	r3, .L13
  79 000c 1022     		movs	r2, #16
  80 000e 5A70     		strb	r2, [r3, #1]
 411:Generated_Source\PSoC5/CAN_1_INT.c **** 
 412:Generated_Source\PSoC5/CAN_1_INT.c ****         /* `#START MESSAGE_RECEIVE_ISR` */
 413:Generated_Source\PSoC5/CAN_1_INT.c **** 
 414:Generated_Source\PSoC5/CAN_1_INT.c ****         /* `#END` */
 415:Generated_Source\PSoC5/CAN_1_INT.c **** 
 416:Generated_Source\PSoC5/CAN_1_INT.c ****         #ifdef CAN_1_MSG_RX_ISR_CALLBACK
 417:Generated_Source\PSoC5/CAN_1_INT.c ****             CAN_1_MsgRXIsr_Callback();
 418:Generated_Source\PSoC5/CAN_1_INT.c ****         #endif /* CAN_1_MSG_RX_ISR_CALLBACK */
 419:Generated_Source\PSoC5/CAN_1_INT.c **** 
 420:Generated_Source\PSoC5/CAN_1_INT.c ****         for (mailboxNumber = 0u; mailboxNumber < CAN_1_NUMBER_OF_RX_MAILBOXES; mailboxNumber++)
  81              		.loc 1 420 0
  82 0010 0023     		movs	r3, #0
  83 0012 FB71     		strb	r3, [r7, #7]
  84 0014 2EE0     		b	.L5
  85              	.L12:
 421:Generated_Source\PSoC5/CAN_1_INT.c ****         {
 422:Generated_Source\PSoC5/CAN_1_INT.c ****             if ((CY_GET_REG16((reg16 *) &CAN_1_BUF_SR_REG.byte[0u]) & shift) != 0u)
  86              		.loc 1 422 0
  87 0016 1B4B     		ldr	r3, .L13+4
  88 0018 1B88     		ldrh	r3, [r3]	@ movhi
  89 001a 9AB2     		uxth	r2, r3
  90 001c BB88     		ldrh	r3, [r7, #4]	@ movhi
  91 001e 1340     		ands	r3, r3, r2
ARM GAS  C:\Users\Schuyler\AppData\Local\Temp\ccACHcZv.s 			page 10


  92 0020 9BB2     		uxth	r3, r3
  93 0022 002B     		cmp	r3, #0
  94 0024 20D0     		beq	.L6
 423:Generated_Source\PSoC5/CAN_1_INT.c ****             {
 424:Generated_Source\PSoC5/CAN_1_INT.c ****                 if ((CAN_1_RX[mailboxNumber].rxcmd.byte[0u] & CAN_1_RX_INT_ENABLE_MASK) != 0u)
  95              		.loc 1 424 0
  96 0026 FB79     		ldrb	r3, [r7, #7]	@ zero_extendqisi2
  97 0028 5A01     		lsls	r2, r3, #5
  98 002a 174B     		ldr	r3, .L13+8
  99 002c 1344     		add	r3, r3, r2
 100 002e 1B78     		ldrb	r3, [r3]
 101 0030 DBB2     		uxtb	r3, r3
 102 0032 03F02003 		and	r3, r3, #32
 103 0036 002B     		cmp	r3, #0
 104 0038 16D0     		beq	.L6
 425:Generated_Source\PSoC5/CAN_1_INT.c ****                 {
 426:Generated_Source\PSoC5/CAN_1_INT.c ****                     if ((CAN_1_RX_MAILBOX_TYPE & shift) != 0u)
 105              		.loc 1 426 0
 106 003a BB88     		ldrh	r3, [r7, #4]	@ movhi
 107 003c 03F00303 		and	r3, r3, #3
 108 0040 9BB2     		uxth	r3, r3
 109 0042 002B     		cmp	r3, #0
 110 0044 0CD0     		beq	.L7
 427:Generated_Source\PSoC5/CAN_1_INT.c ****                     {
 428:Generated_Source\PSoC5/CAN_1_INT.c ****                         /* RX Full mailboxes handler */
 429:Generated_Source\PSoC5/CAN_1_INT.c ****                         switch(mailboxNumber)
 111              		.loc 1 429 0
 112 0046 FB79     		ldrb	r3, [r7, #7]	@ zero_extendqisi2
 113 0048 002B     		cmp	r3, #0
 114 004a 02D0     		beq	.L9
 115 004c 012B     		cmp	r3, #1
 116 004e 03D0     		beq	.L10
 430:Generated_Source\PSoC5/CAN_1_INT.c ****                         {
 431:Generated_Source\PSoC5/CAN_1_INT.c ****                             case 0u : CAN_1_ReceiveMsg0();
 432:Generated_Source\PSoC5/CAN_1_INT.c ****                             break;
 433:Generated_Source\PSoC5/CAN_1_INT.c ****                             case 1u : CAN_1_ReceiveMsg1();
 434:Generated_Source\PSoC5/CAN_1_INT.c ****                             break;
 435:Generated_Source\PSoC5/CAN_1_INT.c ****                             default:
 436:Generated_Source\PSoC5/CAN_1_INT.c ****                             break;
 117              		.loc 1 436 0
 118 0050 05E0     		b	.L11
 119              	.L9:
 431:Generated_Source\PSoC5/CAN_1_INT.c ****                             break;
 120              		.loc 1 431 0
 121 0052 FFF7FEFF 		bl	CAN_1_ReceiveMsg0
 432:Generated_Source\PSoC5/CAN_1_INT.c ****                             case 1u : CAN_1_ReceiveMsg1();
 122              		.loc 1 432 0
 123 0056 02E0     		b	.L11
 124              	.L10:
 433:Generated_Source\PSoC5/CAN_1_INT.c ****                             break;
 125              		.loc 1 433 0
 126 0058 FFF7FEFF 		bl	CAN_1_ReceiveMsg1
 434:Generated_Source\PSoC5/CAN_1_INT.c ****                             default:
 127              		.loc 1 434 0
 128 005c 00BF     		nop
 129              	.L11:
 130 005e 03E0     		b	.L6
ARM GAS  C:\Users\Schuyler\AppData\Local\Temp\ccACHcZv.s 			page 11


 131              	.L7:
 437:Generated_Source\PSoC5/CAN_1_INT.c ****                         }
 438:Generated_Source\PSoC5/CAN_1_INT.c ****                     }
 439:Generated_Source\PSoC5/CAN_1_INT.c ****                     else
 440:Generated_Source\PSoC5/CAN_1_INT.c ****                     {
 441:Generated_Source\PSoC5/CAN_1_INT.c ****                         /* RX Basic mailbox handler */
 442:Generated_Source\PSoC5/CAN_1_INT.c ****                         CAN_1_ReceiveMsg(mailboxNumber);
 132              		.loc 1 442 0
 133 0060 FB79     		ldrb	r3, [r7, #7]	@ zero_extendqisi2
 134 0062 1846     		mov	r0, r3
 135 0064 FFF7FEFF 		bl	CAN_1_ReceiveMsg
 136              	.L6:
 443:Generated_Source\PSoC5/CAN_1_INT.c ****                     }
 444:Generated_Source\PSoC5/CAN_1_INT.c ****                 }
 445:Generated_Source\PSoC5/CAN_1_INT.c ****             }
 446:Generated_Source\PSoC5/CAN_1_INT.c ****             shift <<= 1u;
 137              		.loc 1 446 0 discriminator 2
 138 0068 BB88     		ldrh	r3, [r7, #4]	@ movhi
 139 006a 5B00     		lsls	r3, r3, #1
 140 006c BB80     		strh	r3, [r7, #4]	@ movhi
 420:Generated_Source\PSoC5/CAN_1_INT.c ****         {
 141              		.loc 1 420 0 discriminator 2
 142 006e FB79     		ldrb	r3, [r7, #7]	@ zero_extendqisi2
 143 0070 0133     		adds	r3, r3, #1
 144 0072 FB71     		strb	r3, [r7, #7]
 145              	.L5:
 420:Generated_Source\PSoC5/CAN_1_INT.c ****         {
 146              		.loc 1 420 0 is_stmt 0 discriminator 1
 147 0074 FB79     		ldrb	r3, [r7, #7]	@ zero_extendqisi2
 148 0076 0F2B     		cmp	r3, #15
 149 0078 CDD9     		bls	.L12
 447:Generated_Source\PSoC5/CAN_1_INT.c ****         }
 448:Generated_Source\PSoC5/CAN_1_INT.c ****     }
 150              		.loc 1 448 0 is_stmt 1
 151 007a 0837     		adds	r7, r7, #8
 152              		.cfi_def_cfa_offset 8
 153 007c BD46     		mov	sp, r7
 154              		.cfi_def_cfa_register 13
 155              		@ sp needed
 156 007e 80BD     		pop	{r7, pc}
 157              	.L14:
 158              		.align	2
 159              	.L13:
 160 0080 00A00040 		.word	1073782784
 161 0084 08A00040 		.word	1073782792
 162 0088 A0A00040 		.word	1073782944
 163              		.cfi_endproc
 164              	.LFE1:
 165              		.size	CAN_1_MsgRXIsr, .-CAN_1_MsgRXIsr
 166              		.section	.text.CAN_1_ISR,"ax",%progbits
 167              		.align	2
 168              		.global	CAN_1_ISR
 169              		.thumb
 170              		.thumb_func
 171              		.type	CAN_1_ISR, %function
 172              	CAN_1_ISR:
 173              	.LFB2:
ARM GAS  C:\Users\Schuyler\AppData\Local\Temp\ccACHcZv.s 			page 12


 449:Generated_Source\PSoC5/CAN_1_INT.c **** #endif /* CAN_1_RX_MESSAGE */
 450:Generated_Source\PSoC5/CAN_1_INT.c **** 
 451:Generated_Source\PSoC5/CAN_1_INT.c **** 
 452:Generated_Source\PSoC5/CAN_1_INT.c **** /*******************************************************************************
 453:Generated_Source\PSoC5/CAN_1_INT.c **** * Function Name: CAN_1_ISR
 454:Generated_Source\PSoC5/CAN_1_INT.c **** ********************************************************************************
 455:Generated_Source\PSoC5/CAN_1_INT.c **** *
 456:Generated_Source\PSoC5/CAN_1_INT.c **** * Summary:
 457:Generated_Source\PSoC5/CAN_1_INT.c **** *  This ISR is executed when CAN Core generates and interrupt on one of events:
 458:Generated_Source\PSoC5/CAN_1_INT.c **** *  Arb_lost, Overload, Bit_err, Stuff_err, Ack_err, Form_err, Crc_err,
 459:Generated_Source\PSoC5/CAN_1_INT.c **** *  Buss_off, Rx_msg_lost, Tx_msg or Rx_msg. The interrupt sources depends
 460:Generated_Source\PSoC5/CAN_1_INT.c **** *  on the Customizer inputs.
 461:Generated_Source\PSoC5/CAN_1_INT.c **** *
 462:Generated_Source\PSoC5/CAN_1_INT.c **** * Parameters:
 463:Generated_Source\PSoC5/CAN_1_INT.c **** *  None.
 464:Generated_Source\PSoC5/CAN_1_INT.c **** *
 465:Generated_Source\PSoC5/CAN_1_INT.c **** * Return:
 466:Generated_Source\PSoC5/CAN_1_INT.c **** *  None.
 467:Generated_Source\PSoC5/CAN_1_INT.c **** *
 468:Generated_Source\PSoC5/CAN_1_INT.c **** *******************************************************************************/
 469:Generated_Source\PSoC5/CAN_1_INT.c **** CY_ISR(CAN_1_ISR)
 470:Generated_Source\PSoC5/CAN_1_INT.c **** {
 174              		.loc 1 470 0
 175              		.cfi_startproc
 176              		@ args = 0, pretend = 0, frame = 0
 177              		@ frame_needed = 1, uses_anonymous_args = 0
 178 0000 80B5     		push	{r7, lr}
 179              		.cfi_def_cfa_offset 8
 180              		.cfi_offset 7, -8
 181              		.cfi_offset 14, -4
 182 0002 00AF     		add	r7, sp, #0
 183              		.cfi_def_cfa_register 7
 471:Generated_Source\PSoC5/CAN_1_INT.c ****     #ifdef CAN_1_ISR_INTERRUPT_CALLBACK
 472:Generated_Source\PSoC5/CAN_1_INT.c ****         CAN_1_ISR_InterruptCallback();
 473:Generated_Source\PSoC5/CAN_1_INT.c ****     #endif /* CAN_1_ISR_INTERRUPT_CALLBACK */
 474:Generated_Source\PSoC5/CAN_1_INT.c ****     
 475:Generated_Source\PSoC5/CAN_1_INT.c ****     /* Place your Interrupt code here. */
 476:Generated_Source\PSoC5/CAN_1_INT.c ****     /* `#START CAN_ISR` */
 477:Generated_Source\PSoC5/CAN_1_INT.c **** 
 478:Generated_Source\PSoC5/CAN_1_INT.c ****     /* `#END` */
 479:Generated_Source\PSoC5/CAN_1_INT.c ****     
 480:Generated_Source\PSoC5/CAN_1_INT.c ****     /* Arbitration */
 481:Generated_Source\PSoC5/CAN_1_INT.c ****     #if (CAN_1_ARB_LOST && (CAN_1_ARB_LOST_USE_HELPER || \
 482:Generated_Source\PSoC5/CAN_1_INT.c ****         (!CAN_1_ADVANCED_INTERRUPT_CFG)))
 483:Generated_Source\PSoC5/CAN_1_INT.c ****         if ((CAN_1_INT_SR_REG.byte[0u] & CAN_1_ARBITRATION_LOST_MASK) != 0u)
 484:Generated_Source\PSoC5/CAN_1_INT.c ****         {
 485:Generated_Source\PSoC5/CAN_1_INT.c ****             CAN_1_ArbLostIsr();
 486:Generated_Source\PSoC5/CAN_1_INT.c ****         }
 487:Generated_Source\PSoC5/CAN_1_INT.c ****     #endif /* CAN_1_ARB_LOST && CAN_1_ARB_LOST_USE_HELPER */
 488:Generated_Source\PSoC5/CAN_1_INT.c **** 
 489:Generated_Source\PSoC5/CAN_1_INT.c ****     /* Overload Error */
 490:Generated_Source\PSoC5/CAN_1_INT.c ****     #if (CAN_1_OVERLOAD && (CAN_1_OVERLOAD_USE_HELPER || \
 491:Generated_Source\PSoC5/CAN_1_INT.c ****         (!CAN_1_ADVANCED_INTERRUPT_CFG)))
 492:Generated_Source\PSoC5/CAN_1_INT.c ****         if ((CAN_1_INT_SR_REG.byte[0u] & CAN_1_OVERLOAD_ERROR_MASK) != 0u)
 493:Generated_Source\PSoC5/CAN_1_INT.c ****         {
 494:Generated_Source\PSoC5/CAN_1_INT.c ****             CAN_1_OvrLdErrorIsr();
 495:Generated_Source\PSoC5/CAN_1_INT.c ****         }
ARM GAS  C:\Users\Schuyler\AppData\Local\Temp\ccACHcZv.s 			page 13


 496:Generated_Source\PSoC5/CAN_1_INT.c ****     #endif /* CAN_1_OVERLOAD && CAN_1_OVERLOAD_USE_HELPER */
 497:Generated_Source\PSoC5/CAN_1_INT.c **** 
 498:Generated_Source\PSoC5/CAN_1_INT.c ****     /* Bit Error */
 499:Generated_Source\PSoC5/CAN_1_INT.c ****     #if (CAN_1_BIT_ERR && (CAN_1_BIT_ERR_USE_HELPER || \
 500:Generated_Source\PSoC5/CAN_1_INT.c ****         (!CAN_1_ADVANCED_INTERRUPT_CFG)))
 501:Generated_Source\PSoC5/CAN_1_INT.c ****         if ((CAN_1_INT_SR_REG.byte[0u] & CAN_1_BIT_ERROR_MASK) != 0u)
 502:Generated_Source\PSoC5/CAN_1_INT.c ****         {
 503:Generated_Source\PSoC5/CAN_1_INT.c ****             CAN_1_BitErrorIsr();
 504:Generated_Source\PSoC5/CAN_1_INT.c ****         }
 505:Generated_Source\PSoC5/CAN_1_INT.c ****     #endif /* CAN_1_BIT_ERR && CAN_1_BIT_ERR_USE_HELPER */
 506:Generated_Source\PSoC5/CAN_1_INT.c **** 
 507:Generated_Source\PSoC5/CAN_1_INT.c ****     /* Bit Staff Error */
 508:Generated_Source\PSoC5/CAN_1_INT.c ****     #if (CAN_1_STUFF_ERR && (CAN_1_STUFF_ERR_USE_HELPER || \
 509:Generated_Source\PSoC5/CAN_1_INT.c ****         (!CAN_1_ADVANCED_INTERRUPT_CFG)))
 510:Generated_Source\PSoC5/CAN_1_INT.c ****         if ((CAN_1_INT_SR_REG.byte[0u] & CAN_1_STUFF_ERROR_MASK) != 0u)
 511:Generated_Source\PSoC5/CAN_1_INT.c ****         {
 512:Generated_Source\PSoC5/CAN_1_INT.c ****             CAN_1_BitStuffErrorIsr();
 513:Generated_Source\PSoC5/CAN_1_INT.c ****         }
 514:Generated_Source\PSoC5/CAN_1_INT.c ****     #endif /* CAN_1_STUFF_ERR && CAN_1_STUFF_ERR_USE_HELPER */
 515:Generated_Source\PSoC5/CAN_1_INT.c **** 
 516:Generated_Source\PSoC5/CAN_1_INT.c ****     /* ACK Error */
 517:Generated_Source\PSoC5/CAN_1_INT.c ****     #if (CAN_1_ACK_ERR && (CAN_1_ACK_ERR_USE_HELPER || \
 518:Generated_Source\PSoC5/CAN_1_INT.c ****         (!CAN_1_ADVANCED_INTERRUPT_CFG)))
 519:Generated_Source\PSoC5/CAN_1_INT.c ****         if ((CAN_1_INT_SR_REG.byte[0u] & CAN_1_ACK_ERROR_MASK) != 0u)
 520:Generated_Source\PSoC5/CAN_1_INT.c ****         {
 521:Generated_Source\PSoC5/CAN_1_INT.c ****             CAN_1_AckErrorIsr();
 522:Generated_Source\PSoC5/CAN_1_INT.c ****         }
 523:Generated_Source\PSoC5/CAN_1_INT.c ****     #endif /* CAN_1_ACK_ERR && CAN_1_ACK_ERR_USE_HELPER */
 524:Generated_Source\PSoC5/CAN_1_INT.c **** 
 525:Generated_Source\PSoC5/CAN_1_INT.c ****     /* Form(msg) Error */
 526:Generated_Source\PSoC5/CAN_1_INT.c ****     #if (CAN_1_FORM_ERR && (CAN_1_FORM_ERR_USE_HELPER || \
 527:Generated_Source\PSoC5/CAN_1_INT.c ****         (!CAN_1_ADVANCED_INTERRUPT_CFG)))
 528:Generated_Source\PSoC5/CAN_1_INT.c ****         if ((CAN_1_INT_SR_REG.byte[0u] & CAN_1_FORM_ERROR_MASK) != 0u)
 529:Generated_Source\PSoC5/CAN_1_INT.c ****         {
 530:Generated_Source\PSoC5/CAN_1_INT.c ****             CAN_1_MsgErrorIsr();
 531:Generated_Source\PSoC5/CAN_1_INT.c ****         }
 532:Generated_Source\PSoC5/CAN_1_INT.c ****     #endif /* CAN_1_FORM_ERR && CAN_1_FORM_ERR_USE_HELPER */
 533:Generated_Source\PSoC5/CAN_1_INT.c **** 
 534:Generated_Source\PSoC5/CAN_1_INT.c ****     /* CRC Error */
 535:Generated_Source\PSoC5/CAN_1_INT.c ****     #if (CAN_1_CRC_ERR && (CAN_1_CRC_ERR_USE_HELPER || \
 536:Generated_Source\PSoC5/CAN_1_INT.c ****         (!CAN_1_ADVANCED_INTERRUPT_CFG)))
 537:Generated_Source\PSoC5/CAN_1_INT.c ****         if ((CAN_1_INT_SR_REG.byte[1u] & CAN_1_CRC_ERROR_MASK) != 0u)
 538:Generated_Source\PSoC5/CAN_1_INT.c ****         {
 539:Generated_Source\PSoC5/CAN_1_INT.c ****             CAN_1_CrcErrorIsr();
 540:Generated_Source\PSoC5/CAN_1_INT.c ****         }
 541:Generated_Source\PSoC5/CAN_1_INT.c ****     #endif /* CAN_1_CRC_ERR && CAN_1_CRC_ERR_USE_HELPER */
 542:Generated_Source\PSoC5/CAN_1_INT.c **** 
 543:Generated_Source\PSoC5/CAN_1_INT.c ****     /* Bus Off state */
 544:Generated_Source\PSoC5/CAN_1_INT.c ****     #if (CAN_1_BUS_OFF && (CAN_1_BUS_OFF_USE_HELPER || \
 545:Generated_Source\PSoC5/CAN_1_INT.c ****         (!CAN_1_ADVANCED_INTERRUPT_CFG)))
 546:Generated_Source\PSoC5/CAN_1_INT.c ****         if ((CAN_1_INT_SR_REG.byte[1u] & CAN_1_BUS_OFF_MASK) != 0u)
 184              		.loc 1 546 0
 185 0004 094B     		ldr	r3, .L18
 186 0006 5B78     		ldrb	r3, [r3, #1]
 187 0008 DBB2     		uxtb	r3, r3
 188 000a 03F00203 		and	r3, r3, #2
 189 000e 002B     		cmp	r3, #0
ARM GAS  C:\Users\Schuyler\AppData\Local\Temp\ccACHcZv.s 			page 14


 190 0010 01D0     		beq	.L16
 547:Generated_Source\PSoC5/CAN_1_INT.c ****         {
 548:Generated_Source\PSoC5/CAN_1_INT.c ****             CAN_1_BusOffIsr();
 191              		.loc 1 548 0
 192 0012 FFF7FEFF 		bl	CAN_1_BusOffIsr
 193              	.L16:
 549:Generated_Source\PSoC5/CAN_1_INT.c ****         }
 550:Generated_Source\PSoC5/CAN_1_INT.c ****     #endif /* CAN_1_BUS_OFF && CAN_1_BUS_OFF_USE_HELPER */
 551:Generated_Source\PSoC5/CAN_1_INT.c **** 
 552:Generated_Source\PSoC5/CAN_1_INT.c ****     /* Message Lost */
 553:Generated_Source\PSoC5/CAN_1_INT.c ****     #if (CAN_1_RX_MSG_LOST && (CAN_1_RX_MSG_LOST_USE_HELPER || \
 554:Generated_Source\PSoC5/CAN_1_INT.c ****         (!CAN_1_ADVANCED_INTERRUPT_CFG)))
 555:Generated_Source\PSoC5/CAN_1_INT.c ****         if ((CAN_1_INT_SR_REG.byte[1u] & CAN_1_RX_MSG_LOST_MASK) != 0u)
 556:Generated_Source\PSoC5/CAN_1_INT.c ****         {
 557:Generated_Source\PSoC5/CAN_1_INT.c ****             CAN_1_MsgLostIsr();
 558:Generated_Source\PSoC5/CAN_1_INT.c ****         }
 559:Generated_Source\PSoC5/CAN_1_INT.c ****     #endif /* CAN_1_RX_MSG_LOST && CAN_1_RX_MSG_LOST_USE_HELPER */
 560:Generated_Source\PSoC5/CAN_1_INT.c **** 
 561:Generated_Source\PSoC5/CAN_1_INT.c ****     /* TX Message Send */
 562:Generated_Source\PSoC5/CAN_1_INT.c ****     #if (CAN_1_TX_MESSAGE && (CAN_1_TX_MESSAGE_USE_HELPER || \
 563:Generated_Source\PSoC5/CAN_1_INT.c ****         (!CAN_1_ADVANCED_INTERRUPT_CFG)))
 564:Generated_Source\PSoC5/CAN_1_INT.c ****         if ((CAN_1_INT_SR_REG.byte[1u] & CAN_1_TX_MESSAGE_MASK) != 0u)
 565:Generated_Source\PSoC5/CAN_1_INT.c ****         {
 566:Generated_Source\PSoC5/CAN_1_INT.c ****             CAN_1_MsgTXIsr();
 567:Generated_Source\PSoC5/CAN_1_INT.c ****         }
 568:Generated_Source\PSoC5/CAN_1_INT.c ****     #endif /* CAN_1_TX_MESSAGE && CAN_1_TX_MESSAGE_USE_HELPER */
 569:Generated_Source\PSoC5/CAN_1_INT.c **** 
 570:Generated_Source\PSoC5/CAN_1_INT.c ****     /* RX Message Available */
 571:Generated_Source\PSoC5/CAN_1_INT.c ****     #if (CAN_1_RX_MESSAGE && (CAN_1_RX_MESSAGE_USE_HELPER || \
 572:Generated_Source\PSoC5/CAN_1_INT.c ****         (!CAN_1_ADVANCED_INTERRUPT_CFG)))
 573:Generated_Source\PSoC5/CAN_1_INT.c ****         if ((CAN_1_INT_SR_REG.byte[1u] & CAN_1_RX_MESSAGE_MASK) != 0u)
 194              		.loc 1 573 0
 195 0016 054B     		ldr	r3, .L18
 196 0018 5B78     		ldrb	r3, [r3, #1]
 197 001a DBB2     		uxtb	r3, r3
 198 001c 03F01003 		and	r3, r3, #16
 199 0020 002B     		cmp	r3, #0
 200 0022 01D0     		beq	.L15
 574:Generated_Source\PSoC5/CAN_1_INT.c ****         {
 575:Generated_Source\PSoC5/CAN_1_INT.c ****             CAN_1_MsgRXIsr();
 201              		.loc 1 575 0
 202 0024 FFF7FEFF 		bl	CAN_1_MsgRXIsr
 203              	.L15:
 576:Generated_Source\PSoC5/CAN_1_INT.c ****         }
 577:Generated_Source\PSoC5/CAN_1_INT.c ****     #endif /* CAN_1_RX_MESSAGE && CAN_1_RX_MESSAGE_USE_HELPER */
 578:Generated_Source\PSoC5/CAN_1_INT.c **** }
 204              		.loc 1 578 0
 205 0028 80BD     		pop	{r7, pc}
 206              	.L19:
 207 002a 00BF     		.align	2
 208              	.L18:
 209 002c 00A00040 		.word	1073782784
 210              		.cfi_endproc
 211              	.LFE2:
 212              		.size	CAN_1_ISR, .-CAN_1_ISR
 213              		.text
 214              	.Letext0:
ARM GAS  C:\Users\Schuyler\AppData\Local\Temp\ccACHcZv.s 			page 15


 215              		.file 2 "Generated_Source\\PSoC5\\cytypes.h"
 216              		.file 3 "Generated_Source\\PSoC5\\CAN_1.h"