ARM GAS  C:\Users\Schuyler\AppData\Local\Temp\ccUcqVeA.s 			page 1


   1              		.syntax unified
   2              		.cpu cortex-m3
   3              		.fpu softvfp
   4              		.eabi_attribute 20, 1
   5              		.eabi_attribute 21, 1
   6              		.eabi_attribute 23, 3
   7              		.eabi_attribute 24, 1
   8              		.eabi_attribute 25, 1
   9              		.eabi_attribute 26, 1
  10              		.eabi_attribute 30, 6
  11              		.eabi_attribute 34, 1
  12              		.eabi_attribute 18, 4
  13              		.thumb
  14              		.file	"can_manga.c"
  15              		.text
  16              	.Ltext0:
  17              		.cfi_sections	.debug_frame
  18              		.section	.text.testHandler,"ax",%progbits
  19              		.align	2
  20              		.global	testHandler
  21              		.thumb
  22              		.thumb_func
  23              		.type	testHandler, %function
  24              	testHandler:
  25              	.LFB0:
  26              		.file 1 "./can_manga_handlers.h"
   1:./can_manga_handlers.h **** /* ========================================
   2:./can_manga_handlers.h ****  * This file is used for declaring functions which will be executed for a particular CAN ID.
   3:./can_manga_handlers.h ****  * ========================================
   4:./can_manga_handlers.h ****  */
   5:./can_manga_handlers.h **** 
   6:./can_manga_handlers.h **** #ifndef CAN_MANGA_HANDLERS_H
   7:./can_manga_handlers.h **** #define CAN_MANGA_HANDLERS_H
   8:./can_manga_handlers.h **** 
   9:./can_manga_handlers.h **** #include "CAN_1.h"
  10:./can_manga_handlers.h **** #include "RED.h"
  11:./can_manga_handlers.h ****     
  12:./can_manga_handlers.h **** extern volatile unsigned int incrementedNumber;
  13:./can_manga_handlers.h **** 
  14:./can_manga_handlers.h **** // Handles 0x300
  15:./can_manga_handlers.h **** void testHandler(CAN_1_RX_STRUCT msg)
  16:./can_manga_handlers.h **** {
  27              		.loc 1 16 0
  28              		.cfi_startproc
  29              		@ args = 32, pretend = 16, frame = 0
  30              		@ frame_needed = 1, uses_anonymous_args = 0
  31              		@ link register save eliminated.
  32 0000 84B0     		sub	sp, sp, #16
  33              		.cfi_def_cfa_offset 16
  34 0002 90B4     		push	{r4, r7}
  35              		.cfi_def_cfa_offset 24
  36              		.cfi_offset 4, -24
  37              		.cfi_offset 7, -20
  38 0004 00AF     		add	r7, sp, #0
  39              		.cfi_def_cfa_register 7
  40 0006 07F10804 		add	r4, r7, #8
  41 000a 84E80F00 		stmia	r4, {r0, r1, r2, r3}
ARM GAS  C:\Users\Schuyler\AppData\Local\Temp\ccUcqVeA.s 			page 2


  17:./can_manga_handlers.h ****     incrementedNumber = (int)msg.rxdata.byte[CAN_1_DATA_BYTE_1];
  42              		.loc 1 17 0
  43 000e FB7C     		ldrb	r3, [r7, #19]
  44 0010 DBB2     		uxtb	r3, r3
  45 0012 1A46     		mov	r2, r3
  46 0014 024B     		ldr	r3, .L2
  47 0016 1A60     		str	r2, [r3]
  18:./can_manga_handlers.h **** };
  48              		.loc 1 18 0
  49 0018 BD46     		mov	sp, r7
  50              		.cfi_def_cfa_register 13
  51              		@ sp needed
  52 001a 90BC     		pop	{r4, r7}
  53              		.cfi_restore 7
  54              		.cfi_restore 4
  55              		.cfi_def_cfa_offset 16
  56 001c 04B0     		add	sp, sp, #16
  57              		.cfi_def_cfa_offset 0
  58 001e 7047     		bx	lr
  59              	.L3:
  60              		.align	2
  61              	.L2:
  62 0020 00000000 		.word	incrementedNumber
  63              		.cfi_endproc
  64              	.LFE0:
  65              		.size	testHandler, .-testHandler
  66              		.section	.text.testHandler2,"ax",%progbits
  67              		.align	2
  68              		.global	testHandler2
  69              		.thumb
  70              		.thumb_func
  71              		.type	testHandler2, %function
  72              	testHandler2:
  73              	.LFB1:
  19:./can_manga_handlers.h **** void testHandler2(CAN_1_RX_STRUCT msg)
  20:./can_manga_handlers.h **** {
  74              		.loc 1 20 0
  75              		.cfi_startproc
  76              		@ args = 32, pretend = 16, frame = 0
  77              		@ frame_needed = 1, uses_anonymous_args = 0
  78 0000 84B0     		sub	sp, sp, #16
  79              		.cfi_def_cfa_offset 16
  80 0002 80B5     		push	{r7, lr}
  81              		.cfi_def_cfa_offset 24
  82              		.cfi_offset 7, -24
  83              		.cfi_offset 14, -20
  84 0004 00AF     		add	r7, sp, #0
  85              		.cfi_def_cfa_register 7
  86 0006 07F1080E 		add	lr, r7, #8
  87 000a 8EE80F00 		stmia	lr, {r0, r1, r2, r3}
  21:./can_manga_handlers.h ****     RED_Write(1);
  88              		.loc 1 21 0
  89 000e 0120     		movs	r0, #1
  90 0010 FFF7FEFF 		bl	RED_Write
  22:./can_manga_handlers.h ****     CyDelay(500);
  91              		.loc 1 22 0
  92 0014 4FF4FA70 		mov	r0, #500
ARM GAS  C:\Users\Schuyler\AppData\Local\Temp\ccUcqVeA.s 			page 3


  93 0018 FFF7FEFF 		bl	CyDelay
  23:./can_manga_handlers.h ****     RED_Write(0);
  94              		.loc 1 23 0
  95 001c 0020     		movs	r0, #0
  96 001e FFF7FEFF 		bl	RED_Write
  24:./can_manga_handlers.h **** };
  97              		.loc 1 24 0
  98 0022 BD46     		mov	sp, r7
  99              		.cfi_def_cfa_register 13
 100              		@ sp needed
 101 0024 BDE88040 		pop	{r7, lr}
 102              		.cfi_restore 14
 103              		.cfi_restore 7
 104              		.cfi_def_cfa_offset 16
 105 0028 04B0     		add	sp, sp, #16
 106              		.cfi_def_cfa_offset 0
 107 002a 7047     		bx	lr
 108              		.cfi_endproc
 109              	.LFE1:
 110              		.size	testHandler2, .-testHandler2
 111              		.section	.text.can_receive,"ax",%progbits
 112              		.align	2
 113              		.global	can_receive
 114              		.thumb
 115              		.thumb_func
 116              		.type	can_receive, %function
 117              	can_receive:
 118              	.LFB2:
 119              		.file 2 "..\\can_manga.c"
   1:..\can_manga.c **** /* ========================================
   2:..\can_manga.c ****  * Can API for FRUCD
   3:..\can_manga.c ****  * Schuyler Alschuler 2016 - 2017
   4:..\can_manga.c ****  * ========================================
   5:..\can_manga.c **** */
   6:..\can_manga.c **** 
   7:..\can_manga.c **** /*
   8:..\can_manga.c ****     Make sure to use macros to access data bytes. They are not in
   9:..\can_manga.c ****     the order you expect! These macros were defined by Cypress in CAN_1.h.
  10:..\can_manga.c ****     
  11:..\can_manga.c ****     CAN_1_DATA_BYTE_1    
  12:..\can_manga.c ****     CAN_1_DATA_BYTE_2    
  13:..\can_manga.c ****     CAN_1_DATA_BYTE_3    
  14:..\can_manga.c ****     CAN_1_DATA_BYTE_4    
  15:..\can_manga.c ****     CAN_1_DATA_BYTE_5
  16:..\can_manga.c ****     CAN_1_DATA_BYTE_6
  17:..\can_manga.c ****     CAN_1_DATA_BYTE_7
  18:..\can_manga.c ****     CAN_1_DATA_BYTE_8
  19:..\can_manga.c **** */
  20:..\can_manga.c **** 
  21:..\can_manga.c **** #include "CAN_1.h"
  22:..\can_manga.c **** #include "can_manga.h"
  23:..\can_manga.c **** #include "can_manga_handlers.h"
  24:..\can_manga.c **** 
  25:..\can_manga.c **** 
  26:..\can_manga.c **** void can_receive(CAN_1_RX_STRUCT msg, int ID)
  27:..\can_manga.c **** {
 120              		.loc 2 27 0
ARM GAS  C:\Users\Schuyler\AppData\Local\Temp\ccUcqVeA.s 			page 4


 121              		.cfi_startproc
 122              		@ args = 36, pretend = 16, frame = 0
 123              		@ frame_needed = 1, uses_anonymous_args = 0
 124 0000 84B0     		sub	sp, sp, #16
 125              		.cfi_def_cfa_offset 16
 126 0002 90B5     		push	{r4, r7, lr}
 127              		.cfi_def_cfa_offset 28
 128              		.cfi_offset 4, -28
 129              		.cfi_offset 7, -24
 130              		.cfi_offset 14, -20
 131 0004 85B0     		sub	sp, sp, #20
 132              		.cfi_def_cfa_offset 48
 133 0006 04AF     		add	r7, sp, #16
 134              		.cfi_def_cfa 7, 32
 135 0008 07F11004 		add	r4, r7, #16
 136 000c 84E80F00 		stmia	r4, {r0, r1, r2, r3}
  28:..\can_manga.c ****     switch (ID) 
 137              		.loc 2 28 0
 138 0010 3B6B     		ldr	r3, [r7, #48]
 139 0012 B3F5407F 		cmp	r3, #768
 140 0016 03D0     		beq	.L7
 141 0018 B3F5C06F 		cmp	r3, #1536
 142 001c 0CD0     		beq	.L8
 143 001e 16E0     		b	.L5
 144              	.L7:
  29:..\can_manga.c ****     {
  30:..\can_manga.c ****         case 0x300:
  31:..\can_manga.c ****             testHandler(msg);
 145              		.loc 2 31 0
 146 0020 6C46     		mov	r4, sp
 147 0022 07F12003 		add	r3, r7, #32
 148 0026 0FCB     		ldmia	r3, {r0, r1, r2, r3}
 149 0028 84E80F00 		stmia	r4, {r0, r1, r2, r3}
 150 002c 07F11003 		add	r3, r7, #16
 151 0030 0FCB     		ldmia	r3, {r0, r1, r2, r3}
 152 0032 FFF7FEFF 		bl	testHandler
  32:..\can_manga.c ****             break;
 153              		.loc 2 32 0
 154 0036 0AE0     		b	.L5
 155              	.L8:
  33:..\can_manga.c ****         case 0x600:
  34:..\can_manga.c ****             testHandler2(msg);
 156              		.loc 2 34 0
 157 0038 6C46     		mov	r4, sp
 158 003a 07F12003 		add	r3, r7, #32
 159 003e 0FCB     		ldmia	r3, {r0, r1, r2, r3}
 160 0040 84E80F00 		stmia	r4, {r0, r1, r2, r3}
 161 0044 07F11003 		add	r3, r7, #16
 162 0048 0FCB     		ldmia	r3, {r0, r1, r2, r3}
 163 004a FFF7FEFF 		bl	testHandler2
 164              	.L5:
  35:..\can_manga.c ****     }
  36:..\can_manga.c **** }
 165              		.loc 2 36 0
 166 004e 0437     		adds	r7, r7, #4
 167              		.cfi_def_cfa_offset 28
 168 0050 BD46     		mov	sp, r7
ARM GAS  C:\Users\Schuyler\AppData\Local\Temp\ccUcqVeA.s 			page 5


 169              		.cfi_def_cfa_register 13
 170              		@ sp needed
 171 0052 BDE89040 		pop	{r4, r7, lr}
 172              		.cfi_restore 14
 173              		.cfi_restore 7
 174              		.cfi_restore 4
 175              		.cfi_def_cfa_offset 16
 176 0056 04B0     		add	sp, sp, #16
 177              		.cfi_def_cfa_offset 0
 178 0058 7047     		bx	lr
 179              		.cfi_endproc
 180              	.LFE2:
 181              		.size	can_receive, .-can_receive
 182 005a 00BF     		.section	.text.can_test_send,"ax",%progbits
 183              		.align	2
 184              		.global	can_test_send
 185              		.thumb
 186              		.thumb_func
 187              		.type	can_test_send, %function
 188              	can_test_send:
 189              	.LFB3:
  37:..\can_manga.c **** 
  38:..\can_manga.c **** void can_test_send()
  39:..\can_manga.c **** {
 190              		.loc 2 39 0
 191              		.cfi_startproc
 192              		@ args = 0, pretend = 0, frame = 16
 193              		@ frame_needed = 1, uses_anonymous_args = 0
 194 0000 80B5     		push	{r7, lr}
 195              		.cfi_def_cfa_offset 8
 196              		.cfi_offset 7, -8
 197              		.cfi_offset 14, -4
 198 0002 84B0     		sub	sp, sp, #16
 199              		.cfi_def_cfa_offset 24
 200 0004 00AF     		add	r7, sp, #0
 201              		.cfi_def_cfa_register 7
  40:..\can_manga.c ****     //CAN_1_DATA_BYTES_MSG msg;
  41:..\can_manga.c ****     CAN_1_TX_MSG HeartB;
  42:..\can_manga.c ****     
  43:..\can_manga.c ****     HeartB.id = 0x300;
 202              		.loc 2 43 0
 203 0006 4FF44073 		mov	r3, #768
 204 000a 7B60     		str	r3, [r7, #4]
  44:..\can_manga.c ****     HeartB.rtr = 0;
 205              		.loc 2 44 0
 206 000c 0023     		movs	r3, #0
 207 000e 3B72     		strb	r3, [r7, #8]
  45:..\can_manga.c ****     HeartB.ide = 0;
 208              		.loc 2 45 0
 209 0010 0023     		movs	r3, #0
 210 0012 7B72     		strb	r3, [r7, #9]
  46:..\can_manga.c ****     HeartB.dlc = 1;
 211              		.loc 2 46 0
 212 0014 0123     		movs	r3, #1
 213 0016 BB72     		strb	r3, [r7, #10]
  47:..\can_manga.c ****     
  48:..\can_manga.c ****     HeartB.irq = 0;
ARM GAS  C:\Users\Schuyler\AppData\Local\Temp\ccUcqVeA.s 			page 6


 214              		.loc 2 48 0
 215 0018 0023     		movs	r3, #0
 216 001a FB72     		strb	r3, [r7, #11]
  49:..\can_manga.c ****     
  50:..\can_manga.c ****     HeartB.msg->byte[0] = (uint8) 1;
 217              		.loc 2 50 0
 218 001c FB68     		ldr	r3, [r7, #12]
 219 001e 0122     		movs	r2, #1
 220 0020 1A70     		strb	r2, [r3]
  51:..\can_manga.c ****     HeartB.msg->byte[1] = (uint8) 1;
 221              		.loc 2 51 0
 222 0022 FB68     		ldr	r3, [r7, #12]
 223 0024 0122     		movs	r2, #1
 224 0026 5A70     		strb	r2, [r3, #1]
  52:..\can_manga.c ****     HeartB.msg->byte[2] = (uint8) 1;
 225              		.loc 2 52 0
 226 0028 FB68     		ldr	r3, [r7, #12]
 227 002a 0122     		movs	r2, #1
 228 002c 9A70     		strb	r2, [r3, #2]
  53:..\can_manga.c ****     HeartB.msg->byte[3] = (uint8) 1;
 229              		.loc 2 53 0
 230 002e FB68     		ldr	r3, [r7, #12]
 231 0030 0122     		movs	r2, #1
 232 0032 DA70     		strb	r2, [r3, #3]
  54:..\can_manga.c ****     HeartB.msg->byte[4] = (uint8) 1;
 233              		.loc 2 54 0
 234 0034 FB68     		ldr	r3, [r7, #12]
 235 0036 0122     		movs	r2, #1
 236 0038 1A71     		strb	r2, [r3, #4]
  55:..\can_manga.c ****     HeartB.msg->byte[5] = (uint8) 1;
 237              		.loc 2 55 0
 238 003a FB68     		ldr	r3, [r7, #12]
 239 003c 0122     		movs	r2, #1
 240 003e 5A71     		strb	r2, [r3, #5]
  56:..\can_manga.c ****     HeartB.msg->byte[6] = (uint8) 1;
 241              		.loc 2 56 0
 242 0040 FB68     		ldr	r3, [r7, #12]
 243 0042 0122     		movs	r2, #1
 244 0044 9A71     		strb	r2, [r3, #6]
  57:..\can_manga.c ****     HeartB.msg->byte[7] = (uint8) 1;
 245              		.loc 2 57 0
 246 0046 FB68     		ldr	r3, [r7, #12]
 247 0048 0122     		movs	r2, #1
 248 004a DA71     		strb	r2, [r3, #7]
  58:..\can_manga.c ****     
  59:..\can_manga.c ****     CAN_1_SendMsg(&HeartB);
 249              		.loc 2 59 0
 250 004c 3B1D     		adds	r3, r7, #4
 251 004e 1846     		mov	r0, r3
 252 0050 FFF7FEFF 		bl	CAN_1_SendMsg
  60:..\can_manga.c **** }
 253              		.loc 2 60 0
 254 0054 1037     		adds	r7, r7, #16
 255              		.cfi_def_cfa_offset 8
 256 0056 BD46     		mov	sp, r7
 257              		.cfi_def_cfa_register 13
 258              		@ sp needed
ARM GAS  C:\Users\Schuyler\AppData\Local\Temp\ccUcqVeA.s 			page 7


 259 0058 80BD     		pop	{r7, pc}
 260              		.cfi_endproc
 261              	.LFE3:
 262              		.size	can_test_send, .-can_test_send
 263 005a 00BF     		.section	.text.can_send,"ax",%progbits
 264              		.align	2
 265              		.global	can_send
 266              		.thumb
 267              		.thumb_func
 268              		.type	can_send, %function
 269              	can_send:
 270              	.LFB4:
  61:..\can_manga.c **** 
  62:..\can_manga.c **** void can_send(uint8_t data[8], uint32_t ID)
  63:..\can_manga.c **** {
 271              		.loc 2 63 0
 272              		.cfi_startproc
 273              		@ args = 0, pretend = 0, frame = 32
 274              		@ frame_needed = 1, uses_anonymous_args = 0
 275 0000 80B5     		push	{r7, lr}
 276              		.cfi_def_cfa_offset 8
 277              		.cfi_offset 7, -8
 278              		.cfi_offset 14, -4
 279 0002 88B0     		sub	sp, sp, #32
 280              		.cfi_def_cfa_offset 40
 281 0004 00AF     		add	r7, sp, #0
 282              		.cfi_def_cfa_register 7
 283 0006 7860     		str	r0, [r7, #4]
 284 0008 3960     		str	r1, [r7]
  64:..\can_manga.c ****     uint8_t i, state;
  65:..\can_manga.c **** 	CAN_1_TX_MSG message;
  66:..\can_manga.c **** 	CAN_1_DATA_BYTES_MSG payload;
  67:..\can_manga.c **** 	message.id = ID; 
 285              		.loc 2 67 0
 286 000a 3B68     		ldr	r3, [r7]
 287 000c 3B61     		str	r3, [r7, #16]
  68:..\can_manga.c **** 	message.rtr = 0;
 288              		.loc 2 68 0
 289 000e 0023     		movs	r3, #0
 290 0010 3B75     		strb	r3, [r7, #20]
  69:..\can_manga.c **** 	message.ide = 0;
 291              		.loc 2 69 0
 292 0012 0023     		movs	r3, #0
 293 0014 7B75     		strb	r3, [r7, #21]
  70:..\can_manga.c **** 	message.dlc = 0x08;
 294              		.loc 2 70 0
 295 0016 0823     		movs	r3, #8
 296 0018 BB75     		strb	r3, [r7, #22]
  71:..\can_manga.c **** 	message.irq = 0;
 297              		.loc 2 71 0
 298 001a 0023     		movs	r3, #0
 299 001c FB75     		strb	r3, [r7, #23]
  72:..\can_manga.c **** 	message.msg = &payload;
 300              		.loc 2 72 0
 301 001e 07F10803 		add	r3, r7, #8
 302 0022 BB61     		str	r3, [r7, #24]
  73:..\can_manga.c **** 	for(i=0;i<8;i++)
ARM GAS  C:\Users\Schuyler\AppData\Local\Temp\ccUcqVeA.s 			page 8


 303              		.loc 2 73 0
 304 0024 0023     		movs	r3, #0
 305 0026 FB77     		strb	r3, [r7, #31]
 306 0028 0CE0     		b	.L11
 307              	.L12:
  74:..\can_manga.c **** 		payload.byte[i] = data[i];
 308              		.loc 2 74 0 discriminator 3
 309 002a FB7F     		ldrb	r3, [r7, #31]	@ zero_extendqisi2
 310 002c FA7F     		ldrb	r2, [r7, #31]	@ zero_extendqisi2
 311 002e 7968     		ldr	r1, [r7, #4]
 312 0030 0A44     		add	r2, r2, r1
 313 0032 1278     		ldrb	r2, [r2]	@ zero_extendqisi2
 314 0034 07F12001 		add	r1, r7, #32
 315 0038 0B44     		add	r3, r3, r1
 316 003a 03F8182C 		strb	r2, [r3, #-24]
  73:..\can_manga.c **** 	for(i=0;i<8;i++)
 317              		.loc 2 73 0 discriminator 3
 318 003e FB7F     		ldrb	r3, [r7, #31]	@ zero_extendqisi2
 319 0040 0133     		adds	r3, r3, #1
 320 0042 FB77     		strb	r3, [r7, #31]
 321              	.L11:
  73:..\can_manga.c **** 	for(i=0;i<8;i++)
 322              		.loc 2 73 0 is_stmt 0 discriminator 1
 323 0044 FB7F     		ldrb	r3, [r7, #31]	@ zero_extendqisi2
 324 0046 072B     		cmp	r3, #7
 325 0048 EFD9     		bls	.L12
  75:..\can_manga.c **** 	CAN_1_SendMsg(&message); 
 326              		.loc 2 75 0 is_stmt 1
 327 004a 07F11003 		add	r3, r7, #16
 328 004e 1846     		mov	r0, r3
 329 0050 FFF7FEFF 		bl	CAN_1_SendMsg
  76:..\can_manga.c **** }
 330              		.loc 2 76 0
 331 0054 2037     		adds	r7, r7, #32
 332              		.cfi_def_cfa_offset 8
 333 0056 BD46     		mov	sp, r7
 334              		.cfi_def_cfa_register 13
 335              		@ sp needed
 336 0058 80BD     		pop	{r7, pc}
 337              		.cfi_endproc
 338              	.LFE4:
 339              		.size	can_send, .-can_send
 340 005a 00BF     		.text
 341              	.Letext0:
 342              		.file 3 "c:\\program files (x86)\\cypress\\psoc creator\\4.0\\psoc creator\\import\\gnu\\arm\\4.9.
 343              		.file 4 "c:\\program files (x86)\\cypress\\psoc creator\\4.0\\psoc creator\\import\\gnu\\arm\\4.9.
 344              		.file 5 "Generated_Source\\PSoC5/cytypes.h"
 345              		.file 6 "Generated_Source\\PSoC5/CAN_1.h"