ARM GAS  C:\Users\Schuyler\AppData\Local\Temp\ccsCP5dX.s 			page 1


   1              		.syntax unified
   2              		.cpu cortex-m3
   3              		.fpu softvfp
   4              		.eabi_attribute 20, 1
   5              		.eabi_attribute 21, 1
   6              		.eabi_attribute 23, 3
   7              		.eabi_attribute 24, 1
   8              		.eabi_attribute 25, 1
   9              		.eabi_attribute 26, 1
  10              		.eabi_attribute 30, 6
  11              		.eabi_attribute 34, 1
  12              		.eabi_attribute 18, 4
  13              		.thumb
  14              		.file	"CAN_1_TX_RX_func.c"
  15              		.text
  16              	.Ltext0:
  17              		.cfi_sections	.debug_frame
  18              		.section	.text.CAN_1_SendMsg,"ax",%progbits
  19              		.align	2
  20              		.global	CAN_1_SendMsg
  21              		.thumb
  22              		.thumb_func
  23              		.type	CAN_1_SendMsg, %function
  24              	CAN_1_SendMsg:
  25              	.LFB0:
  26              		.file 1 "Generated_Source\\PSoC5\\CAN_1_TX_RX_func.c"
   1:Generated_Source\PSoC5/CAN_1_TX_RX_func.c **** /*******************************************************************************
   2:Generated_Source\PSoC5/CAN_1_TX_RX_func.c **** * File Name: CAN_1_TX_RX_func.c
   3:Generated_Source\PSoC5/CAN_1_TX_RX_func.c **** * Version 3.0
   4:Generated_Source\PSoC5/CAN_1_TX_RX_func.c **** *
   5:Generated_Source\PSoC5/CAN_1_TX_RX_func.c **** * Description:
   6:Generated_Source\PSoC5/CAN_1_TX_RX_func.c **** *  There are functions process "Full" Receive and Transmit mailboxes:
   7:Generated_Source\PSoC5/CAN_1_TX_RX_func.c **** *     - CAN_1_SendMsg0-7();
   8:Generated_Source\PSoC5/CAN_1_TX_RX_func.c **** *     - CAN_1_ReceiveMsg0-15();
   9:Generated_Source\PSoC5/CAN_1_TX_RX_func.c **** *  Transmission of message, and receive routine for "Basic" mailboxes:
  10:Generated_Source\PSoC5/CAN_1_TX_RX_func.c **** *     - CAN_1_SendMsg();
  11:Generated_Source\PSoC5/CAN_1_TX_RX_func.c **** *     - CAN_1_TxCancel();
  12:Generated_Source\PSoC5/CAN_1_TX_RX_func.c **** *     - CAN_1_ReceiveMsg();
  13:Generated_Source\PSoC5/CAN_1_TX_RX_func.c **** *
  14:Generated_Source\PSoC5/CAN_1_TX_RX_func.c **** *  Note:
  15:Generated_Source\PSoC5/CAN_1_TX_RX_func.c **** *   None
  16:Generated_Source\PSoC5/CAN_1_TX_RX_func.c **** *
  17:Generated_Source\PSoC5/CAN_1_TX_RX_func.c **** ********************************************************************************
  18:Generated_Source\PSoC5/CAN_1_TX_RX_func.c **** * Copyright 2008-2015, Cypress Semiconductor Corporation.  All rights reserved.
  19:Generated_Source\PSoC5/CAN_1_TX_RX_func.c **** * You may use this file only in accordance with the license, terms, conditions,
  20:Generated_Source\PSoC5/CAN_1_TX_RX_func.c **** * disclaimers, and limitations in the end user license agreement accompanying
  21:Generated_Source\PSoC5/CAN_1_TX_RX_func.c **** * the software package with which this file was provided.
  22:Generated_Source\PSoC5/CAN_1_TX_RX_func.c **** *******************************************************************************/
  23:Generated_Source\PSoC5/CAN_1_TX_RX_func.c **** 
  24:Generated_Source\PSoC5/CAN_1_TX_RX_func.c **** #include "CAN_1.h"
  25:Generated_Source\PSoC5/CAN_1_TX_RX_func.c **** 
  26:Generated_Source\PSoC5/CAN_1_TX_RX_func.c **** 
  27:Generated_Source\PSoC5/CAN_1_TX_RX_func.c **** /* `#START TX_RX_FUNCTION` */
  28:Generated_Source\PSoC5/CAN_1_TX_RX_func.c **** #include "GREEN.h"
  29:Generated_Source\PSoC5/CAN_1_TX_RX_func.c **** #include "RED.h"
  30:Generated_Source\PSoC5/CAN_1_TX_RX_func.c **** #include "../can_manga.h"
  31:Generated_Source\PSoC5/CAN_1_TX_RX_func.c **** extern uint8 Rx_Data;
ARM GAS  C:\Users\Schuyler\AppData\Local\Temp\ccsCP5dX.s 			page 2


  32:Generated_Source\PSoC5/CAN_1_TX_RX_func.c **** /* `#END` */
  33:Generated_Source\PSoC5/CAN_1_TX_RX_func.c **** 
  34:Generated_Source\PSoC5/CAN_1_TX_RX_func.c **** 
  35:Generated_Source\PSoC5/CAN_1_TX_RX_func.c **** /*******************************************************************************
  36:Generated_Source\PSoC5/CAN_1_TX_RX_func.c **** * FUNCTION NAME:   CAN_1_SendMsg
  37:Generated_Source\PSoC5/CAN_1_TX_RX_func.c **** ********************************************************************************
  38:Generated_Source\PSoC5/CAN_1_TX_RX_func.c **** *
  39:Generated_Source\PSoC5/CAN_1_TX_RX_func.c **** * Summary:
  40:Generated_Source\PSoC5/CAN_1_TX_RX_func.c **** *  This function is Send Message from one of Basic mailboxes. The function loops
  41:Generated_Source\PSoC5/CAN_1_TX_RX_func.c **** *  through the transmit message buffer designed as Basic CAN mailboxes for the
  42:Generated_Source\PSoC5/CAN_1_TX_RX_func.c **** *  first free available and sends from it. The number of retries is limited.
  43:Generated_Source\PSoC5/CAN_1_TX_RX_func.c **** *
  44:Generated_Source\PSoC5/CAN_1_TX_RX_func.c **** * Parameters:
  45:Generated_Source\PSoC5/CAN_1_TX_RX_func.c **** *  message: The pointer to a structure that contains all required data to send
  46:Generated_Source\PSoC5/CAN_1_TX_RX_func.c **** *           messages.
  47:Generated_Source\PSoC5/CAN_1_TX_RX_func.c **** *
  48:Generated_Source\PSoC5/CAN_1_TX_RX_func.c **** * Return:
  49:Generated_Source\PSoC5/CAN_1_TX_RX_func.c **** *  Indication if message has been sent.
  50:Generated_Source\PSoC5/CAN_1_TX_RX_func.c **** *   Define                             Description
  51:Generated_Source\PSoC5/CAN_1_TX_RX_func.c **** *    CYRET_SUCCESS                      The function passed successfully
  52:Generated_Source\PSoC5/CAN_1_TX_RX_func.c **** *    CAN_1_FAIL              The function failed
  53:Generated_Source\PSoC5/CAN_1_TX_RX_func.c **** *
  54:Generated_Source\PSoC5/CAN_1_TX_RX_func.c **** *******************************************************************************/
  55:Generated_Source\PSoC5/CAN_1_TX_RX_func.c **** uint8 CAN_1_SendMsg(const CAN_1_TX_MSG *message) 
  56:Generated_Source\PSoC5/CAN_1_TX_RX_func.c **** {
  27              		.loc 1 56 0
  28              		.cfi_startproc
  29              		@ args = 0, pretend = 0, frame = 24
  30              		@ frame_needed = 1, uses_anonymous_args = 0
  31              		@ link register save eliminated.
  32 0000 80B4     		push	{r7}
  33              		.cfi_def_cfa_offset 4
  34              		.cfi_offset 7, -4
  35 0002 87B0     		sub	sp, sp, #28
  36              		.cfi_def_cfa_offset 32
  37 0004 00AF     		add	r7, sp, #0
  38              		.cfi_def_cfa_register 7
  39 0006 7860     		str	r0, [r7, #4]
  57:Generated_Source\PSoC5/CAN_1_TX_RX_func.c ****     uint8 i, j, shift;
  58:Generated_Source\PSoC5/CAN_1_TX_RX_func.c ****     uint8 retry = 0u;
  40              		.loc 1 58 0
  41 0008 0023     		movs	r3, #0
  42 000a 3B75     		strb	r3, [r7, #20]
  59:Generated_Source\PSoC5/CAN_1_TX_RX_func.c ****     uint8 result = CAN_1_FAIL;
  43              		.loc 1 59 0
  44 000c 0123     		movs	r3, #1
  45 000e FB74     		strb	r3, [r7, #19]
  60:Generated_Source\PSoC5/CAN_1_TX_RX_func.c ****     uint32 regTemp;
  61:Generated_Source\PSoC5/CAN_1_TX_RX_func.c **** 
  62:Generated_Source\PSoC5/CAN_1_TX_RX_func.c ****     while (retry < CAN_1_RETRY_NUMBER)
  46              		.loc 1 62 0
  47 0010 9BE0     		b	.L2
  48              	.L21:
  63:Generated_Source\PSoC5/CAN_1_TX_RX_func.c ****     {
  64:Generated_Source\PSoC5/CAN_1_TX_RX_func.c ****         shift = 1u;    /* Start from first mailbox */
  49              		.loc 1 64 0
  50 0012 0123     		movs	r3, #1
ARM GAS  C:\Users\Schuyler\AppData\Local\Temp\ccsCP5dX.s 			page 3


  51 0014 7B75     		strb	r3, [r7, #21]
  65:Generated_Source\PSoC5/CAN_1_TX_RX_func.c ****         for (i = 0u; i < CAN_1_NUMBER_OF_TX_MAILBOXES; i++)
  52              		.loc 1 65 0
  53 0016 0023     		movs	r3, #0
  54 0018 FB75     		strb	r3, [r7, #23]
  55 001a 8BE0     		b	.L3
  56              	.L18:
  66:Generated_Source\PSoC5/CAN_1_TX_RX_func.c ****         {
  67:Generated_Source\PSoC5/CAN_1_TX_RX_func.c ****             /* Find Basic TX mailboxes */
  68:Generated_Source\PSoC5/CAN_1_TX_RX_func.c ****             if ((CAN_1_TX_MAILBOX_TYPE & shift) == 0u)
  69:Generated_Source\PSoC5/CAN_1_TX_RX_func.c ****             {
  70:Generated_Source\PSoC5/CAN_1_TX_RX_func.c ****                 /* Find free mailbox */
  71:Generated_Source\PSoC5/CAN_1_TX_RX_func.c ****                 #if (CY_PSOC3 || CY_PSOC5)
  72:Generated_Source\PSoC5/CAN_1_TX_RX_func.c ****                     if ((CAN_1_BUF_SR_REG.byte[2] & shift) == 0u)
  57              		.loc 1 72 0
  58 001c 504B     		ldr	r3, .L23
  59 001e 9B78     		ldrb	r3, [r3, #2]
  60 0020 DAB2     		uxtb	r2, r3
  61 0022 7B7D     		ldrb	r3, [r7, #21]
  62 0024 1340     		ands	r3, r3, r2
  63 0026 DBB2     		uxtb	r3, r3
  64 0028 002B     		cmp	r3, #0
  65 002a 79D1     		bne	.L4
  73:Generated_Source\PSoC5/CAN_1_TX_RX_func.c ****                 #else  /* CY_PSOC4 */
  74:Generated_Source\PSoC5/CAN_1_TX_RX_func.c ****                     if ((CAN_1_BUF_SR_REG &
  75:Generated_Source\PSoC5/CAN_1_TX_RX_func.c ****                         (uint32) ((uint32) shift << CAN_1_TWO_BYTE_OFFSET)) == 0u)
  76:Generated_Source\PSoC5/CAN_1_TX_RX_func.c ****                 #endif /* CY_PSOC3 || CY_PSOC5 */
  77:Generated_Source\PSoC5/CAN_1_TX_RX_func.c ****                     {
  78:Generated_Source\PSoC5/CAN_1_TX_RX_func.c ****                         regTemp = 0u;
  66              		.loc 1 78 0
  67 002c 0023     		movs	r3, #0
  68 002e FB60     		str	r3, [r7, #12]
  79:Generated_Source\PSoC5/CAN_1_TX_RX_func.c **** 
  80:Generated_Source\PSoC5/CAN_1_TX_RX_func.c ****                         /* Set message parameters */
  81:Generated_Source\PSoC5/CAN_1_TX_RX_func.c ****                         if (message->rtr != CAN_1_STANDARD_MESSAGE)
  69              		.loc 1 81 0
  70 0030 7B68     		ldr	r3, [r7, #4]
  71 0032 1B79     		ldrb	r3, [r3, #4]	@ zero_extendqisi2
  72 0034 002B     		cmp	r3, #0
  73 0036 02D0     		beq	.L5
  82:Generated_Source\PSoC5/CAN_1_TX_RX_func.c ****                         {
  83:Generated_Source\PSoC5/CAN_1_TX_RX_func.c ****                             regTemp = CAN_1_TX_RTR_MASK;    /* RTR message Enable */
  74              		.loc 1 83 0
  75 0038 4FF40013 		mov	r3, #2097152
  76 003c FB60     		str	r3, [r7, #12]
  77              	.L5:
  84:Generated_Source\PSoC5/CAN_1_TX_RX_func.c ****                         }
  85:Generated_Source\PSoC5/CAN_1_TX_RX_func.c **** 
  86:Generated_Source\PSoC5/CAN_1_TX_RX_func.c ****                         if (message->ide == CAN_1_STANDARD_MESSAGE)
  78              		.loc 1 86 0
  79 003e 7B68     		ldr	r3, [r7, #4]
  80 0040 5B79     		ldrb	r3, [r3, #5]	@ zero_extendqisi2
  81 0042 002B     		cmp	r3, #0
  82 0044 09D1     		bne	.L6
  87:Generated_Source\PSoC5/CAN_1_TX_RX_func.c ****                         {
  88:Generated_Source\PSoC5/CAN_1_TX_RX_func.c ****                             CAN_1_SET_TX_ID_STANDARD_MSG(i, message->id);
  83              		.loc 1 88 0
ARM GAS  C:\Users\Schuyler\AppData\Local\Temp\ccsCP5dX.s 			page 4


  84 0046 FB7D     		ldrb	r3, [r7, #23]	@ zero_extendqisi2
  85 0048 1A01     		lsls	r2, r3, #4
  86 004a 464B     		ldr	r3, .L23+4
  87 004c 1344     		add	r3, r3, r2
  88 004e 0433     		adds	r3, r3, #4
  89 0050 7A68     		ldr	r2, [r7, #4]
  90 0052 1268     		ldr	r2, [r2]
  91 0054 5205     		lsls	r2, r2, #21
  92 0056 1A60     		str	r2, [r3]
  93 0058 0CE0     		b	.L7
  94              	.L6:
  89:Generated_Source\PSoC5/CAN_1_TX_RX_func.c ****                         }
  90:Generated_Source\PSoC5/CAN_1_TX_RX_func.c ****                         else
  91:Generated_Source\PSoC5/CAN_1_TX_RX_func.c ****                         {
  92:Generated_Source\PSoC5/CAN_1_TX_RX_func.c ****                             regTemp |= CAN_1_TX_IDE_MASK;
  95              		.loc 1 92 0
  96 005a FB68     		ldr	r3, [r7, #12]
  97 005c 43F48013 		orr	r3, r3, #1048576
  98 0060 FB60     		str	r3, [r7, #12]
  93:Generated_Source\PSoC5/CAN_1_TX_RX_func.c ****                             CAN_1_SET_TX_ID_EXTENDED_MSG(i, message->id);
  99              		.loc 1 93 0
 100 0062 FB7D     		ldrb	r3, [r7, #23]	@ zero_extendqisi2
 101 0064 1A01     		lsls	r2, r3, #4
 102 0066 3F4B     		ldr	r3, .L23+4
 103 0068 1344     		add	r3, r3, r2
 104 006a 0433     		adds	r3, r3, #4
 105 006c 7A68     		ldr	r2, [r7, #4]
 106 006e 1268     		ldr	r2, [r2]
 107 0070 D200     		lsls	r2, r2, #3
 108 0072 1A60     		str	r2, [r3]
 109              	.L7:
  94:Generated_Source\PSoC5/CAN_1_TX_RX_func.c ****                         }
  95:Generated_Source\PSoC5/CAN_1_TX_RX_func.c **** 
  96:Generated_Source\PSoC5/CAN_1_TX_RX_func.c ****                         if (message->dlc < CAN_1_TX_DLC_MAX_VALUE)
 110              		.loc 1 96 0
 111 0074 7B68     		ldr	r3, [r7, #4]
 112 0076 9B79     		ldrb	r3, [r3, #6]	@ zero_extendqisi2
 113 0078 072B     		cmp	r3, #7
 114 007a 06D8     		bhi	.L8
  97:Generated_Source\PSoC5/CAN_1_TX_RX_func.c ****                         {
  98:Generated_Source\PSoC5/CAN_1_TX_RX_func.c ****                             regTemp |= ((uint32) message->dlc) << CAN_1_TWO_BYTE_OFFSET;
 115              		.loc 1 98 0
 116 007c 7B68     		ldr	r3, [r7, #4]
 117 007e 9B79     		ldrb	r3, [r3, #6]	@ zero_extendqisi2
 118 0080 1B04     		lsls	r3, r3, #16
 119 0082 FA68     		ldr	r2, [r7, #12]
 120 0084 1343     		orrs	r3, r3, r2
 121 0086 FB60     		str	r3, [r7, #12]
 122 0088 03E0     		b	.L9
 123              	.L8:
  99:Generated_Source\PSoC5/CAN_1_TX_RX_func.c ****                         }
 100:Generated_Source\PSoC5/CAN_1_TX_RX_func.c ****                         else
 101:Generated_Source\PSoC5/CAN_1_TX_RX_func.c ****                         {
 102:Generated_Source\PSoC5/CAN_1_TX_RX_func.c ****                             regTemp |= CAN_1_TX_DLC_UPPER_VALUE;
 124              		.loc 1 102 0
 125 008a FB68     		ldr	r3, [r7, #12]
 126 008c 43F40023 		orr	r3, r3, #524288
ARM GAS  C:\Users\Schuyler\AppData\Local\Temp\ccsCP5dX.s 			page 5


 127 0090 FB60     		str	r3, [r7, #12]
 128              	.L9:
 103:Generated_Source\PSoC5/CAN_1_TX_RX_func.c ****                         }
 104:Generated_Source\PSoC5/CAN_1_TX_RX_func.c **** 
 105:Generated_Source\PSoC5/CAN_1_TX_RX_func.c ****                         if (message->irq != CAN_1_TRANSMIT_INT_DISABLE)
 129              		.loc 1 105 0
 130 0092 7B68     		ldr	r3, [r7, #4]
 131 0094 DB79     		ldrb	r3, [r3, #7]	@ zero_extendqisi2
 132 0096 002B     		cmp	r3, #0
 133 0098 03D0     		beq	.L10
 106:Generated_Source\PSoC5/CAN_1_TX_RX_func.c ****                         {
 107:Generated_Source\PSoC5/CAN_1_TX_RX_func.c ****                             regTemp |= CAN_1_TX_INT_ENABLE_MASK;    /* Transmit Interrupt Enable */
 134              		.loc 1 107 0
 135 009a FB68     		ldr	r3, [r7, #12]
 136 009c 43F00403 		orr	r3, r3, #4
 137 00a0 FB60     		str	r3, [r7, #12]
 138              	.L10:
 108:Generated_Source\PSoC5/CAN_1_TX_RX_func.c ****                         }
 109:Generated_Source\PSoC5/CAN_1_TX_RX_func.c **** 
 110:Generated_Source\PSoC5/CAN_1_TX_RX_func.c ****                         for (j = 0u; (j < message->dlc) && (j < CAN_1_TX_DLC_MAX_VALUE); j++)
 139              		.loc 1 110 0
 140 00a2 0023     		movs	r3, #0
 141 00a4 BB75     		strb	r3, [r7, #22]
 142 00a6 17E0     		b	.L11
 143              	.L15:
 111:Generated_Source\PSoC5/CAN_1_TX_RX_func.c ****                         {
 112:Generated_Source\PSoC5/CAN_1_TX_RX_func.c ****                             #if (CY_PSOC3 || CY_PSOC5)
 113:Generated_Source\PSoC5/CAN_1_TX_RX_func.c ****                                 CAN_1_TX_DATA_BYTE(i, j) = message->msg->byte[j];
 144              		.loc 1 113 0
 145 00a8 FB7D     		ldrb	r3, [r7, #23]	@ zero_extendqisi2
 146 00aa 1A01     		lsls	r2, r3, #4
 147 00ac 2D4B     		ldr	r3, .L23+4
 148 00ae 1344     		add	r3, r3, r2
 149 00b0 BA7D     		ldrb	r2, [r7, #22]	@ zero_extendqisi2
 150 00b2 032A     		cmp	r2, #3
 151 00b4 03D9     		bls	.L12
 152              		.loc 1 113 0 is_stmt 0 discriminator 1
 153 00b6 BA7D     		ldrb	r2, [r7, #22]	@ zero_extendqisi2
 154 00b8 C2F10B02 		rsb	r2, r2, #11
 155 00bc 02E0     		b	.L13
 156              	.L12:
 157              		.loc 1 113 0 discriminator 2
 158 00be BA7D     		ldrb	r2, [r7, #22]	@ zero_extendqisi2
 159 00c0 C2F10302 		rsb	r2, r2, #3
 160              	.L13:
 161              		.loc 1 113 0 discriminator 4
 162 00c4 7968     		ldr	r1, [r7, #4]
 163 00c6 8868     		ldr	r0, [r1, #8]
 164 00c8 B97D     		ldrb	r1, [r7, #22]	@ zero_extendqisi2
 165 00ca 415C     		ldrb	r1, [r0, r1]	@ zero_extendqisi2
 166 00cc 1344     		add	r3, r3, r2
 167 00ce 0A46     		mov	r2, r1
 168 00d0 1A72     		strb	r2, [r3, #8]
 110:Generated_Source\PSoC5/CAN_1_TX_RX_func.c ****                         {
 169              		.loc 1 110 0 is_stmt 1 discriminator 4
 170 00d2 BB7D     		ldrb	r3, [r7, #22]	@ zero_extendqisi2
 171 00d4 0133     		adds	r3, r3, #1
ARM GAS  C:\Users\Schuyler\AppData\Local\Temp\ccsCP5dX.s 			page 6


 172 00d6 BB75     		strb	r3, [r7, #22]
 173              	.L11:
 110:Generated_Source\PSoC5/CAN_1_TX_RX_func.c ****                         {
 174              		.loc 1 110 0 is_stmt 0 discriminator 2
 175 00d8 7B68     		ldr	r3, [r7, #4]
 176 00da 9B79     		ldrb	r3, [r3, #6]	@ zero_extendqisi2
 177 00dc BA7D     		ldrb	r2, [r7, #22]	@ zero_extendqisi2
 178 00de 9A42     		cmp	r2, r3
 179 00e0 02D2     		bcs	.L14
 110:Generated_Source\PSoC5/CAN_1_TX_RX_func.c ****                         {
 180              		.loc 1 110 0 discriminator 3
 181 00e2 BB7D     		ldrb	r3, [r7, #22]	@ zero_extendqisi2
 182 00e4 072B     		cmp	r3, #7
 183 00e6 DFD9     		bls	.L15
 184              	.L14:
 114:Generated_Source\PSoC5/CAN_1_TX_RX_func.c ****                             #else /* CY_PSOC4 */
 115:Generated_Source\PSoC5/CAN_1_TX_RX_func.c ****                                 CAN_1_TX_DATA_BYTE(i, j, message->msg->byte[j]);
 116:Generated_Source\PSoC5/CAN_1_TX_RX_func.c ****                             #endif /* CY_PSOC3 || CY_PSOC5 */
 117:Generated_Source\PSoC5/CAN_1_TX_RX_func.c ****                         }
 118:Generated_Source\PSoC5/CAN_1_TX_RX_func.c **** 
 119:Generated_Source\PSoC5/CAN_1_TX_RX_func.c ****                         /* Disable isr */
 120:Generated_Source\PSoC5/CAN_1_TX_RX_func.c ****     CyIntDisable(CAN_1_ISR_NUMBER);
 185              		.loc 1 120 0 is_stmt 1
 186 00e8 1F4B     		ldr	r3, .L23+8
 187 00ea 4FF48032 		mov	r2, #65536
 188 00ee 1A60     		str	r2, [r3]
 121:Generated_Source\PSoC5/CAN_1_TX_RX_func.c **** 
 122:Generated_Source\PSoC5/CAN_1_TX_RX_func.c ****                         /* WPN[23] and WPN[3] set to 1 for write to CAN Control reg */
 123:Generated_Source\PSoC5/CAN_1_TX_RX_func.c ****                         CY_SET_REG32(CAN_1_TX_CMD_PTR(i), (regTemp | CAN_1_TX_WPN_SET));
 189              		.loc 1 123 0
 190 00f0 FB7D     		ldrb	r3, [r7, #23]	@ zero_extendqisi2
 191 00f2 1A01     		lsls	r2, r3, #4
 192 00f4 1B4B     		ldr	r3, .L23+4
 193 00f6 1344     		add	r3, r3, r2
 194 00f8 1A46     		mov	r2, r3
 195 00fa FB68     		ldr	r3, [r7, #12]
 196 00fc 43F40003 		orr	r3, r3, #8388608
 197 0100 43F00803 		orr	r3, r3, #8
 198 0104 1360     		str	r3, [r2]
 124:Generated_Source\PSoC5/CAN_1_TX_RX_func.c **** 
 125:Generated_Source\PSoC5/CAN_1_TX_RX_func.c ****                         #if (CY_PSOC3 || CY_PSOC5)
 126:Generated_Source\PSoC5/CAN_1_TX_RX_func.c ****                             CY_SET_REG32(CAN_1_TX_CMD_PTR(i), CAN_1_SEND_MESSAGE);
 199              		.loc 1 126 0
 200 0106 FB7D     		ldrb	r3, [r7, #23]	@ zero_extendqisi2
 201 0108 1A01     		lsls	r2, r3, #4
 202 010a 164B     		ldr	r3, .L23+4
 203 010c 1344     		add	r3, r3, r2
 204 010e 1A46     		mov	r2, r3
 205 0110 0123     		movs	r3, #1
 206 0112 1360     		str	r3, [r2]
 127:Generated_Source\PSoC5/CAN_1_TX_RX_func.c ****                         #else /* CY_PSOC4 */
 128:Generated_Source\PSoC5/CAN_1_TX_RX_func.c ****                             if (message->sst != CAN_1_STANDARD_MESSAGE)
 129:Generated_Source\PSoC5/CAN_1_TX_RX_func.c ****                             {
 130:Generated_Source\PSoC5/CAN_1_TX_RX_func.c ****                                 /* Single Shot Transmission */
 131:Generated_Source\PSoC5/CAN_1_TX_RX_func.c ****                                 CAN_1_TX_CMD_REG(i) |= CAN_1_SEND_MESSAGE |
 132:Generated_Source\PSoC5/CAN_1_TX_RX_func.c ****                                 CAN_1_TX_ABORT_MASK;
 133:Generated_Source\PSoC5/CAN_1_TX_RX_func.c ****                             }
ARM GAS  C:\Users\Schuyler\AppData\Local\Temp\ccsCP5dX.s 			page 7


 134:Generated_Source\PSoC5/CAN_1_TX_RX_func.c ****                             else
 135:Generated_Source\PSoC5/CAN_1_TX_RX_func.c ****                             {
 136:Generated_Source\PSoC5/CAN_1_TX_RX_func.c ****                                 CAN_1_TX_CMD_REG(i) |= CAN_1_SEND_MESSAGE;
 137:Generated_Source\PSoC5/CAN_1_TX_RX_func.c ****                             }
 138:Generated_Source\PSoC5/CAN_1_TX_RX_func.c ****                         #endif /* CY_PSOC3 || CY_PSOC5 */
 139:Generated_Source\PSoC5/CAN_1_TX_RX_func.c **** 
 140:Generated_Source\PSoC5/CAN_1_TX_RX_func.c ****                         /* Enable isr */
 141:Generated_Source\PSoC5/CAN_1_TX_RX_func.c ****     CyIntEnable(CAN_1_ISR_NUMBER);
 207              		.loc 1 141 0
 208 0114 154B     		ldr	r3, .L23+12
 209 0116 4FF48032 		mov	r2, #65536
 210 011a 1A60     		str	r2, [r3]
 142:Generated_Source\PSoC5/CAN_1_TX_RX_func.c **** 
 143:Generated_Source\PSoC5/CAN_1_TX_RX_func.c ****                         result = CYRET_SUCCESS;
 211              		.loc 1 143 0
 212 011c 0023     		movs	r3, #0
 213 011e FB74     		strb	r3, [r7, #19]
 214              	.L4:
 144:Generated_Source\PSoC5/CAN_1_TX_RX_func.c ****                     }
 145:Generated_Source\PSoC5/CAN_1_TX_RX_func.c ****             }
 146:Generated_Source\PSoC5/CAN_1_TX_RX_func.c ****             shift <<= 1u;
 215              		.loc 1 146 0
 216 0120 7B7D     		ldrb	r3, [r7, #21]
 217 0122 5B00     		lsls	r3, r3, #1
 218 0124 7B75     		strb	r3, [r7, #21]
 147:Generated_Source\PSoC5/CAN_1_TX_RX_func.c ****             if (result == CYRET_SUCCESS)
 219              		.loc 1 147 0
 220 0126 FB7C     		ldrb	r3, [r7, #19]	@ zero_extendqisi2
 221 0128 002B     		cmp	r3, #0
 222 012a 00D1     		bne	.L16
 148:Generated_Source\PSoC5/CAN_1_TX_RX_func.c ****             {
 149:Generated_Source\PSoC5/CAN_1_TX_RX_func.c ****                 break;
 223              		.loc 1 149 0
 224 012c 06E0     		b	.L17
 225              	.L16:
  65:Generated_Source\PSoC5/CAN_1_TX_RX_func.c ****         {
 226              		.loc 1 65 0 discriminator 2
 227 012e FB7D     		ldrb	r3, [r7, #23]	@ zero_extendqisi2
 228 0130 0133     		adds	r3, r3, #1
 229 0132 FB75     		strb	r3, [r7, #23]
 230              	.L3:
  65:Generated_Source\PSoC5/CAN_1_TX_RX_func.c ****         {
 231              		.loc 1 65 0 is_stmt 0 discriminator 1
 232 0134 FB7D     		ldrb	r3, [r7, #23]	@ zero_extendqisi2
 233 0136 072B     		cmp	r3, #7
 234 0138 7FF670AF 		bls	.L18
 235              	.L17:
 150:Generated_Source\PSoC5/CAN_1_TX_RX_func.c ****             }
 151:Generated_Source\PSoC5/CAN_1_TX_RX_func.c ****         }
 152:Generated_Source\PSoC5/CAN_1_TX_RX_func.c ****         if (result == CYRET_SUCCESS)
 236              		.loc 1 152 0 is_stmt 1
 237 013c FB7C     		ldrb	r3, [r7, #19]	@ zero_extendqisi2
 238 013e 002B     		cmp	r3, #0
 239 0140 00D1     		bne	.L19
 153:Generated_Source\PSoC5/CAN_1_TX_RX_func.c ****         {
 154:Generated_Source\PSoC5/CAN_1_TX_RX_func.c ****             break;
 240              		.loc 1 154 0
ARM GAS  C:\Users\Schuyler\AppData\Local\Temp\ccsCP5dX.s 			page 8


 241 0142 06E0     		b	.L20
 242              	.L19:
 155:Generated_Source\PSoC5/CAN_1_TX_RX_func.c ****         }
 156:Generated_Source\PSoC5/CAN_1_TX_RX_func.c ****         else
 157:Generated_Source\PSoC5/CAN_1_TX_RX_func.c ****         {
 158:Generated_Source\PSoC5/CAN_1_TX_RX_func.c ****             retry++;
 243              		.loc 1 158 0
 244 0144 3B7D     		ldrb	r3, [r7, #20]	@ zero_extendqisi2
 245 0146 0133     		adds	r3, r3, #1
 246 0148 3B75     		strb	r3, [r7, #20]
 247              	.L2:
  62:Generated_Source\PSoC5/CAN_1_TX_RX_func.c ****     {
 248              		.loc 1 62 0
 249 014a 3B7D     		ldrb	r3, [r7, #20]	@ zero_extendqisi2
 250 014c 022B     		cmp	r3, #2
 251 014e 7FF660AF 		bls	.L21
 252              	.L20:
 159:Generated_Source\PSoC5/CAN_1_TX_RX_func.c ****         }
 160:Generated_Source\PSoC5/CAN_1_TX_RX_func.c ****     }
 161:Generated_Source\PSoC5/CAN_1_TX_RX_func.c **** 
 162:Generated_Source\PSoC5/CAN_1_TX_RX_func.c ****     return (result);
 253              		.loc 1 162 0
 254 0152 FB7C     		ldrb	r3, [r7, #19]	@ zero_extendqisi2
 163:Generated_Source\PSoC5/CAN_1_TX_RX_func.c **** }
 255              		.loc 1 163 0
 256 0154 1846     		mov	r0, r3
 257 0156 1C37     		adds	r7, r7, #28
 258              		.cfi_def_cfa_offset 4
 259 0158 BD46     		mov	sp, r7
 260              		.cfi_def_cfa_register 13
 261              		@ sp needed
 262 015a 5DF8047B 		ldr	r7, [sp], #4
 263              		.cfi_restore 7
 264              		.cfi_def_cfa_offset 0
 265 015e 7047     		bx	lr
 266              	.L24:
 267              		.align	2
 268              	.L23:
 269 0160 08A00040 		.word	1073782792
 270 0164 20A00040 		.word	1073782816
 271 0168 80E100E0 		.word	-536813184
 272 016c 00E100E0 		.word	-536813312
 273              		.cfi_endproc
 274              	.LFE0:
 275              		.size	CAN_1_SendMsg, .-CAN_1_SendMsg
 276              		.section	.text.CAN_1_TxCancel,"ax",%progbits
 277              		.align	2
 278              		.global	CAN_1_TxCancel
 279              		.thumb
 280              		.thumb_func
 281              		.type	CAN_1_TxCancel, %function
 282              	CAN_1_TxCancel:
 283              	.LFB1:
 164:Generated_Source\PSoC5/CAN_1_TX_RX_func.c **** 
 165:Generated_Source\PSoC5/CAN_1_TX_RX_func.c **** 
 166:Generated_Source\PSoC5/CAN_1_TX_RX_func.c **** /*******************************************************************************
 167:Generated_Source\PSoC5/CAN_1_TX_RX_func.c **** * FUNCTION NAME:   CAN_1_TxCancel
ARM GAS  C:\Users\Schuyler\AppData\Local\Temp\ccsCP5dX.s 			page 9


 168:Generated_Source\PSoC5/CAN_1_TX_RX_func.c **** ********************************************************************************
 169:Generated_Source\PSoC5/CAN_1_TX_RX_func.c **** *
 170:Generated_Source\PSoC5/CAN_1_TX_RX_func.c **** * Summary:
 171:Generated_Source\PSoC5/CAN_1_TX_RX_func.c **** *  This function cancels transmission of a message that has been queued to be
 172:Generated_Source\PSoC5/CAN_1_TX_RX_func.c **** *  transmitted. Values between 0 and 7 are valid.
 173:Generated_Source\PSoC5/CAN_1_TX_RX_func.c **** *
 174:Generated_Source\PSoC5/CAN_1_TX_RX_func.c **** * Parameters:
 175:Generated_Source\PSoC5/CAN_1_TX_RX_func.c **** *  bufferId: The mailbox number.
 176:Generated_Source\PSoC5/CAN_1_TX_RX_func.c **** *
 177:Generated_Source\PSoC5/CAN_1_TX_RX_func.c **** * Return:
 178:Generated_Source\PSoC5/CAN_1_TX_RX_func.c **** *  None.
 179:Generated_Source\PSoC5/CAN_1_TX_RX_func.c **** *
 180:Generated_Source\PSoC5/CAN_1_TX_RX_func.c **** *******************************************************************************/
 181:Generated_Source\PSoC5/CAN_1_TX_RX_func.c **** void CAN_1_TxCancel(uint8 bufferId) 
 182:Generated_Source\PSoC5/CAN_1_TX_RX_func.c **** {
 284              		.loc 1 182 0
 285              		.cfi_startproc
 286              		@ args = 0, pretend = 0, frame = 8
 287              		@ frame_needed = 1, uses_anonymous_args = 0
 288              		@ link register save eliminated.
 289 0000 80B4     		push	{r7}
 290              		.cfi_def_cfa_offset 4
 291              		.cfi_offset 7, -4
 292 0002 83B0     		sub	sp, sp, #12
 293              		.cfi_def_cfa_offset 16
 294 0004 00AF     		add	r7, sp, #0
 295              		.cfi_def_cfa_register 7
 296 0006 0346     		mov	r3, r0
 297 0008 FB71     		strb	r3, [r7, #7]
 183:Generated_Source\PSoC5/CAN_1_TX_RX_func.c ****     if (bufferId < CAN_1_NUMBER_OF_TX_MAILBOXES)
 298              		.loc 1 183 0
 299 000a FB79     		ldrb	r3, [r7, #7]	@ zero_extendqisi2
 300 000c 072B     		cmp	r3, #7
 301 000e 12D8     		bhi	.L25
 184:Generated_Source\PSoC5/CAN_1_TX_RX_func.c ****     {
 185:Generated_Source\PSoC5/CAN_1_TX_RX_func.c ****         CAN_1_TX_ABORT_MESSAGE(bufferId);
 302              		.loc 1 185 0
 303 0010 FB79     		ldrb	r3, [r7, #7]	@ zero_extendqisi2
 304 0012 1A01     		lsls	r2, r3, #4
 305 0014 0A4B     		ldr	r3, .L27
 306 0016 1344     		add	r3, r3, r2
 307 0018 FA79     		ldrb	r2, [r7, #7]	@ zero_extendqisi2
 308 001a 1101     		lsls	r1, r2, #4
 309 001c 084A     		ldr	r2, .L27
 310 001e 0A44     		add	r2, r2, r1
 311 0020 1278     		ldrb	r2, [r2]
 312 0022 D2B2     		uxtb	r2, r2
 313 0024 D2B2     		uxtb	r2, r2
 314 0026 22F00302 		bic	r2, r2, #3
 315 002a D2B2     		uxtb	r2, r2
 316 002c 42F00202 		orr	r2, r2, #2
 317 0030 D2B2     		uxtb	r2, r2
 318 0032 D2B2     		uxtb	r2, r2
 319 0034 1A70     		strb	r2, [r3]
 320              	.L25:
 186:Generated_Source\PSoC5/CAN_1_TX_RX_func.c ****     }
 187:Generated_Source\PSoC5/CAN_1_TX_RX_func.c **** }
ARM GAS  C:\Users\Schuyler\AppData\Local\Temp\ccsCP5dX.s 			page 10


 321              		.loc 1 187 0
 322 0036 0C37     		adds	r7, r7, #12
 323              		.cfi_def_cfa_offset 4
 324 0038 BD46     		mov	sp, r7
 325              		.cfi_def_cfa_register 13
 326              		@ sp needed
 327 003a 5DF8047B 		ldr	r7, [sp], #4
 328              		.cfi_restore 7
 329              		.cfi_def_cfa_offset 0
 330 003e 7047     		bx	lr
 331              	.L28:
 332              		.align	2
 333              	.L27:
 334 0040 20A00040 		.word	1073782816
 335              		.cfi_endproc
 336              	.LFE1:
 337              		.size	CAN_1_TxCancel, .-CAN_1_TxCancel
 338              		.section	.text.CAN_1_ReceiveMsg,"ax",%progbits
 339              		.align	2
 340              		.global	CAN_1_ReceiveMsg
 341              		.thumb
 342              		.thumb_func
 343              		.type	CAN_1_ReceiveMsg, %function
 344              	CAN_1_ReceiveMsg:
 345              	.LFB2:
 188:Generated_Source\PSoC5/CAN_1_TX_RX_func.c **** 
 189:Generated_Source\PSoC5/CAN_1_TX_RX_func.c **** 
 190:Generated_Source\PSoC5/CAN_1_TX_RX_func.c **** #if (CAN_1_TX0_FUNC_ENABLE)
 191:Generated_Source\PSoC5/CAN_1_TX_RX_func.c ****     /*******************************************************************************
 192:Generated_Source\PSoC5/CAN_1_TX_RX_func.c ****     * FUNCTION NAME:   CAN_1_SendMsg0
 193:Generated_Source\PSoC5/CAN_1_TX_RX_func.c ****     ********************************************************************************
 194:Generated_Source\PSoC5/CAN_1_TX_RX_func.c ****     *
 195:Generated_Source\PSoC5/CAN_1_TX_RX_func.c ****     * Summary:
 196:Generated_Source\PSoC5/CAN_1_TX_RX_func.c ****     *  This function is the entry point to Transmit Message 0. The function checks
 197:Generated_Source\PSoC5/CAN_1_TX_RX_func.c ****     *  if mailbox 0 doesn't already have un-transmitted messages waiting for
 198:Generated_Source\PSoC5/CAN_1_TX_RX_func.c ****     *  arbitration. If not initiate transmission of the message.
 199:Generated_Source\PSoC5/CAN_1_TX_RX_func.c ****     *  Generated only for the Transmit mailbox designed as Full.
 200:Generated_Source\PSoC5/CAN_1_TX_RX_func.c ****     *
 201:Generated_Source\PSoC5/CAN_1_TX_RX_func.c ****     * Parameters:
 202:Generated_Source\PSoC5/CAN_1_TX_RX_func.c ****     *  None.
 203:Generated_Source\PSoC5/CAN_1_TX_RX_func.c ****     *
 204:Generated_Source\PSoC5/CAN_1_TX_RX_func.c ****     * Return:
 205:Generated_Source\PSoC5/CAN_1_TX_RX_func.c ****     *  Indication if Message has been sent.
 206:Generated_Source\PSoC5/CAN_1_TX_RX_func.c ****     *   Define                             Description
 207:Generated_Source\PSoC5/CAN_1_TX_RX_func.c ****     *    CYRET_SUCCESS                      The function passed successfully
 208:Generated_Source\PSoC5/CAN_1_TX_RX_func.c ****     *    CAN_1_FAIL              The function failed
 209:Generated_Source\PSoC5/CAN_1_TX_RX_func.c ****     *
 210:Generated_Source\PSoC5/CAN_1_TX_RX_func.c ****     *******************************************************************************/
 211:Generated_Source\PSoC5/CAN_1_TX_RX_func.c ****     uint8 CAN_1_SendMsg0(void) 
 212:Generated_Source\PSoC5/CAN_1_TX_RX_func.c ****     {
 213:Generated_Source\PSoC5/CAN_1_TX_RX_func.c ****         uint8 result = CYRET_SUCCESS;
 214:Generated_Source\PSoC5/CAN_1_TX_RX_func.c **** 
 215:Generated_Source\PSoC5/CAN_1_TX_RX_func.c ****         #if (CY_PSOC3 || CY_PSOC5)
 216:Generated_Source\PSoC5/CAN_1_TX_RX_func.c ****             if ((CAN_1_TX[0u].txcmd.byte[0u] & CAN_1_TX_REQUEST_PENDING) != 0u)
 217:Generated_Source\PSoC5/CAN_1_TX_RX_func.c ****         #else  /* CY_PSOC4 */
 218:Generated_Source\PSoC5/CAN_1_TX_RX_func.c ****             if ((CAN_1_TX_CMD_REG(0u) & CAN_1_TX_REQUEST_PENDING) != 0u)
 219:Generated_Source\PSoC5/CAN_1_TX_RX_func.c ****         #endif /* CY_PSOC3 || CY_PSOC5 */
ARM GAS  C:\Users\Schuyler\AppData\Local\Temp\ccsCP5dX.s 			page 11


 220:Generated_Source\PSoC5/CAN_1_TX_RX_func.c ****             {
 221:Generated_Source\PSoC5/CAN_1_TX_RX_func.c ****                 result = CAN_1_FAIL;
 222:Generated_Source\PSoC5/CAN_1_TX_RX_func.c ****             }
 223:Generated_Source\PSoC5/CAN_1_TX_RX_func.c ****             else
 224:Generated_Source\PSoC5/CAN_1_TX_RX_func.c ****             {
 225:Generated_Source\PSoC5/CAN_1_TX_RX_func.c ****                 /* `#START MESSAGE_0_TRASMITTED` */
 226:Generated_Source\PSoC5/CAN_1_TX_RX_func.c **** 
 227:Generated_Source\PSoC5/CAN_1_TX_RX_func.c ****                 /* `#END` */
 228:Generated_Source\PSoC5/CAN_1_TX_RX_func.c **** 
 229:Generated_Source\PSoC5/CAN_1_TX_RX_func.c ****                 #ifdef CAN_1_SEND_MSG_0_CALLBACK
 230:Generated_Source\PSoC5/CAN_1_TX_RX_func.c ****                     CAN_1_SendMsg_0_Callback();
 231:Generated_Source\PSoC5/CAN_1_TX_RX_func.c ****                 #endif /* CAN_1_SEND_MSG_0_CALLBACK */
 232:Generated_Source\PSoC5/CAN_1_TX_RX_func.c **** 
 233:Generated_Source\PSoC5/CAN_1_TX_RX_func.c ****                 CY_SET_REG32(CAN_1_TX_CMD_PTR(0u),
 234:Generated_Source\PSoC5/CAN_1_TX_RX_func.c ****                 CY_GET_REG32(CAN_1_TX_CMD_PTR(0u)) | CAN_1_SEND_MESSAGE);
 235:Generated_Source\PSoC5/CAN_1_TX_RX_func.c ****             }
 236:Generated_Source\PSoC5/CAN_1_TX_RX_func.c **** 
 237:Generated_Source\PSoC5/CAN_1_TX_RX_func.c ****         return (result);
 238:Generated_Source\PSoC5/CAN_1_TX_RX_func.c ****     }
 239:Generated_Source\PSoC5/CAN_1_TX_RX_func.c **** #endif /* CAN_1_TX0_FUNC_ENABLE */
 240:Generated_Source\PSoC5/CAN_1_TX_RX_func.c **** 
 241:Generated_Source\PSoC5/CAN_1_TX_RX_func.c **** 
 242:Generated_Source\PSoC5/CAN_1_TX_RX_func.c **** #if (CAN_1_TX1_FUNC_ENABLE)
 243:Generated_Source\PSoC5/CAN_1_TX_RX_func.c ****     /*******************************************************************************
 244:Generated_Source\PSoC5/CAN_1_TX_RX_func.c ****     * FUNCTION NAME:   CAN_1_SendMsg1
 245:Generated_Source\PSoC5/CAN_1_TX_RX_func.c ****     ********************************************************************************
 246:Generated_Source\PSoC5/CAN_1_TX_RX_func.c ****     *
 247:Generated_Source\PSoC5/CAN_1_TX_RX_func.c ****     * Summary:
 248:Generated_Source\PSoC5/CAN_1_TX_RX_func.c ****     *  This function is the entry point to Transmit Message 1. The function checks
 249:Generated_Source\PSoC5/CAN_1_TX_RX_func.c ****     *  if mailbox 1 doesn't already have un-transmitted messages waiting for
 250:Generated_Source\PSoC5/CAN_1_TX_RX_func.c ****     *  arbitration. If not initiate transmission of the message.
 251:Generated_Source\PSoC5/CAN_1_TX_RX_func.c ****     *  Generated only for the Transmit mailbox designed as Full.
 252:Generated_Source\PSoC5/CAN_1_TX_RX_func.c ****     *
 253:Generated_Source\PSoC5/CAN_1_TX_RX_func.c ****     * Parameters:
 254:Generated_Source\PSoC5/CAN_1_TX_RX_func.c ****     *  None.
 255:Generated_Source\PSoC5/CAN_1_TX_RX_func.c ****     *
 256:Generated_Source\PSoC5/CAN_1_TX_RX_func.c ****     * Return:
 257:Generated_Source\PSoC5/CAN_1_TX_RX_func.c ****     *  Indication if Message has been sent.
 258:Generated_Source\PSoC5/CAN_1_TX_RX_func.c ****     *   Define                             Description
 259:Generated_Source\PSoC5/CAN_1_TX_RX_func.c ****     *    CYRET_SUCCESS                      The function passed successfully
 260:Generated_Source\PSoC5/CAN_1_TX_RX_func.c ****     *    CAN_1_FAIL              The function failed
 261:Generated_Source\PSoC5/CAN_1_TX_RX_func.c ****     *
 262:Generated_Source\PSoC5/CAN_1_TX_RX_func.c ****     *******************************************************************************/
 263:Generated_Source\PSoC5/CAN_1_TX_RX_func.c ****     uint8 CAN_1_SendMsg1(void) 
 264:Generated_Source\PSoC5/CAN_1_TX_RX_func.c ****     {
 265:Generated_Source\PSoC5/CAN_1_TX_RX_func.c ****         uint8 result = CYRET_SUCCESS;
 266:Generated_Source\PSoC5/CAN_1_TX_RX_func.c **** 
 267:Generated_Source\PSoC5/CAN_1_TX_RX_func.c ****         #if (CY_PSOC3 || CY_PSOC5)
 268:Generated_Source\PSoC5/CAN_1_TX_RX_func.c ****             if ((CAN_1_TX[1u].txcmd.byte[0u] & CAN_1_TX_REQUEST_PENDING) != 0u)
 269:Generated_Source\PSoC5/CAN_1_TX_RX_func.c ****         #else  /* CY_PSOC4 */
 270:Generated_Source\PSoC5/CAN_1_TX_RX_func.c ****             if ((CAN_1_TX_CMD_REG(1u) & CAN_1_TX_REQUEST_PENDING) != 0u)
 271:Generated_Source\PSoC5/CAN_1_TX_RX_func.c ****         #endif /* CY_PSOC3 || CY_PSOC5 */
 272:Generated_Source\PSoC5/CAN_1_TX_RX_func.c ****             {
 273:Generated_Source\PSoC5/CAN_1_TX_RX_func.c ****                 result = CAN_1_FAIL;
 274:Generated_Source\PSoC5/CAN_1_TX_RX_func.c ****             }
 275:Generated_Source\PSoC5/CAN_1_TX_RX_func.c ****             else
 276:Generated_Source\PSoC5/CAN_1_TX_RX_func.c ****             {
ARM GAS  C:\Users\Schuyler\AppData\Local\Temp\ccsCP5dX.s 			page 12


 277:Generated_Source\PSoC5/CAN_1_TX_RX_func.c ****                 /* `#START MESSAGE_1_TRASMITTED` */
 278:Generated_Source\PSoC5/CAN_1_TX_RX_func.c **** 
 279:Generated_Source\PSoC5/CAN_1_TX_RX_func.c ****                 /* `#END` */
 280:Generated_Source\PSoC5/CAN_1_TX_RX_func.c **** 
 281:Generated_Source\PSoC5/CAN_1_TX_RX_func.c ****                 #ifdef CAN_1_SEND_MSG_1_CALLBACK
 282:Generated_Source\PSoC5/CAN_1_TX_RX_func.c ****                     CAN_1_SendMsg_1_Callback();
 283:Generated_Source\PSoC5/CAN_1_TX_RX_func.c ****                 #endif /* CAN_1_SEND_MSG_1_CALLBACK */
 284:Generated_Source\PSoC5/CAN_1_TX_RX_func.c **** 
 285:Generated_Source\PSoC5/CAN_1_TX_RX_func.c ****                 CY_SET_REG32(CAN_1_TX_CMD_PTR(1u),
 286:Generated_Source\PSoC5/CAN_1_TX_RX_func.c ****                 CY_GET_REG32(CAN_1_TX_CMD_PTR(1u)) | CAN_1_SEND_MESSAGE);
 287:Generated_Source\PSoC5/CAN_1_TX_RX_func.c ****             }
 288:Generated_Source\PSoC5/CAN_1_TX_RX_func.c **** 
 289:Generated_Source\PSoC5/CAN_1_TX_RX_func.c ****         return (result);
 290:Generated_Source\PSoC5/CAN_1_TX_RX_func.c ****     }
 291:Generated_Source\PSoC5/CAN_1_TX_RX_func.c **** #endif /* CAN_1_TX1_FUNC_ENABLE */
 292:Generated_Source\PSoC5/CAN_1_TX_RX_func.c **** 
 293:Generated_Source\PSoC5/CAN_1_TX_RX_func.c **** 
 294:Generated_Source\PSoC5/CAN_1_TX_RX_func.c **** #if (CAN_1_TX2_FUNC_ENABLE)
 295:Generated_Source\PSoC5/CAN_1_TX_RX_func.c ****     /*******************************************************************************
 296:Generated_Source\PSoC5/CAN_1_TX_RX_func.c ****     * FUNCTION NAME:   CAN_1_SendMsg2
 297:Generated_Source\PSoC5/CAN_1_TX_RX_func.c ****     ********************************************************************************
 298:Generated_Source\PSoC5/CAN_1_TX_RX_func.c ****     *
 299:Generated_Source\PSoC5/CAN_1_TX_RX_func.c ****     * Summary:
 300:Generated_Source\PSoC5/CAN_1_TX_RX_func.c ****     *  This function is the entry point to Transmit Message 2. The function checks
 301:Generated_Source\PSoC5/CAN_1_TX_RX_func.c ****     *  if mailbox 2 doesn't already have un-transmitted messages waiting for
 302:Generated_Source\PSoC5/CAN_1_TX_RX_func.c ****     *  arbitration. If not initiate transmission of the message.
 303:Generated_Source\PSoC5/CAN_1_TX_RX_func.c ****     *  Generated only for the Transmit mailbox designed as Full.
 304:Generated_Source\PSoC5/CAN_1_TX_RX_func.c ****     *
 305:Generated_Source\PSoC5/CAN_1_TX_RX_func.c ****     * Parameters:
 306:Generated_Source\PSoC5/CAN_1_TX_RX_func.c ****     *  None.
 307:Generated_Source\PSoC5/CAN_1_TX_RX_func.c ****     *
 308:Generated_Source\PSoC5/CAN_1_TX_RX_func.c ****     * Return:
 309:Generated_Source\PSoC5/CAN_1_TX_RX_func.c ****     *  Indication if Message has been sent.
 310:Generated_Source\PSoC5/CAN_1_TX_RX_func.c ****     *   Define                             Description
 311:Generated_Source\PSoC5/CAN_1_TX_RX_func.c ****     *    CYRET_SUCCESS                      The function passed successfully
 312:Generated_Source\PSoC5/CAN_1_TX_RX_func.c ****     *    CAN_1_FAIL              The function failed
 313:Generated_Source\PSoC5/CAN_1_TX_RX_func.c ****     *
 314:Generated_Source\PSoC5/CAN_1_TX_RX_func.c ****     *******************************************************************************/
 315:Generated_Source\PSoC5/CAN_1_TX_RX_func.c ****     uint8 CAN_1_SendMsg2(void) 
 316:Generated_Source\PSoC5/CAN_1_TX_RX_func.c ****     {
 317:Generated_Source\PSoC5/CAN_1_TX_RX_func.c ****         uint8 result = CYRET_SUCCESS;
 318:Generated_Source\PSoC5/CAN_1_TX_RX_func.c **** 
 319:Generated_Source\PSoC5/CAN_1_TX_RX_func.c ****         #if (CY_PSOC3 || CY_PSOC5)
 320:Generated_Source\PSoC5/CAN_1_TX_RX_func.c ****             if ((CAN_1_TX[2u].txcmd.byte[0u] & CAN_1_TX_REQUEST_PENDING) != 0u)
 321:Generated_Source\PSoC5/CAN_1_TX_RX_func.c ****         #else  /* CY_PSOC4 */
 322:Generated_Source\PSoC5/CAN_1_TX_RX_func.c ****             if ((CAN_1_TX_CMD_REG(2u) & CAN_1_TX_REQUEST_PENDING) != 0u)
 323:Generated_Source\PSoC5/CAN_1_TX_RX_func.c ****         #endif /* CY_PSOC3 || CY_PSOC5 */
 324:Generated_Source\PSoC5/CAN_1_TX_RX_func.c ****             {
 325:Generated_Source\PSoC5/CAN_1_TX_RX_func.c ****                 result = CAN_1_FAIL;
 326:Generated_Source\PSoC5/CAN_1_TX_RX_func.c ****             }
 327:Generated_Source\PSoC5/CAN_1_TX_RX_func.c ****             else
 328:Generated_Source\PSoC5/CAN_1_TX_RX_func.c ****             {
 329:Generated_Source\PSoC5/CAN_1_TX_RX_func.c ****                 /* `#START MESSAGE_2_TRASMITTED` */
 330:Generated_Source\PSoC5/CAN_1_TX_RX_func.c **** 
 331:Generated_Source\PSoC5/CAN_1_TX_RX_func.c ****                 /* `#END` */
 332:Generated_Source\PSoC5/CAN_1_TX_RX_func.c **** 
 333:Generated_Source\PSoC5/CAN_1_TX_RX_func.c ****                 #ifdef CAN_1_SEND_MSG_2_CALLBACK
ARM GAS  C:\Users\Schuyler\AppData\Local\Temp\ccsCP5dX.s 			page 13


 334:Generated_Source\PSoC5/CAN_1_TX_RX_func.c ****                     CAN_1_SendMsg_2_Callback();
 335:Generated_Source\PSoC5/CAN_1_TX_RX_func.c ****                 #endif /* CAN_1_SEND_MSG_2_CALLBACK */
 336:Generated_Source\PSoC5/CAN_1_TX_RX_func.c **** 
 337:Generated_Source\PSoC5/CAN_1_TX_RX_func.c ****                 CY_SET_REG32(CAN_1_TX_CMD_PTR(2u),
 338:Generated_Source\PSoC5/CAN_1_TX_RX_func.c ****                 CY_GET_REG32(CAN_1_TX_CMD_PTR(2u)) | CAN_1_SEND_MESSAGE);
 339:Generated_Source\PSoC5/CAN_1_TX_RX_func.c ****             }
 340:Generated_Source\PSoC5/CAN_1_TX_RX_func.c **** 
 341:Generated_Source\PSoC5/CAN_1_TX_RX_func.c ****         return (result);
 342:Generated_Source\PSoC5/CAN_1_TX_RX_func.c ****     }
 343:Generated_Source\PSoC5/CAN_1_TX_RX_func.c **** #endif /* CAN_1_TX2_FUNC_ENABLE */
 344:Generated_Source\PSoC5/CAN_1_TX_RX_func.c **** 
 345:Generated_Source\PSoC5/CAN_1_TX_RX_func.c **** 
 346:Generated_Source\PSoC5/CAN_1_TX_RX_func.c **** #if (CAN_1_TX3_FUNC_ENABLE)
 347:Generated_Source\PSoC5/CAN_1_TX_RX_func.c ****     /*******************************************************************************
 348:Generated_Source\PSoC5/CAN_1_TX_RX_func.c ****     * FUNCTION NAME:   CAN_1_SendMsg3
 349:Generated_Source\PSoC5/CAN_1_TX_RX_func.c ****     ********************************************************************************
 350:Generated_Source\PSoC5/CAN_1_TX_RX_func.c ****     *
 351:Generated_Source\PSoC5/CAN_1_TX_RX_func.c ****     * Summary:
 352:Generated_Source\PSoC5/CAN_1_TX_RX_func.c ****     *  This function is the entry point to Transmit Message 3. The function checks
 353:Generated_Source\PSoC5/CAN_1_TX_RX_func.c ****     *  if mailbox 3 doesn't already have un-transmitted messages waiting for
 354:Generated_Source\PSoC5/CAN_1_TX_RX_func.c ****     *  arbitration. If not initiate transmission of the message.
 355:Generated_Source\PSoC5/CAN_1_TX_RX_func.c ****     *  Generated only for the Transmit mailbox designed as Full.
 356:Generated_Source\PSoC5/CAN_1_TX_RX_func.c ****     *
 357:Generated_Source\PSoC5/CAN_1_TX_RX_func.c ****     * Parameters:
 358:Generated_Source\PSoC5/CAN_1_TX_RX_func.c ****     *  None.
 359:Generated_Source\PSoC5/CAN_1_TX_RX_func.c ****     *
 360:Generated_Source\PSoC5/CAN_1_TX_RX_func.c ****     * Return:
 361:Generated_Source\PSoC5/CAN_1_TX_RX_func.c ****     *  Indication if Message has been sent.
 362:Generated_Source\PSoC5/CAN_1_TX_RX_func.c ****     *   Define                             Description
 363:Generated_Source\PSoC5/CAN_1_TX_RX_func.c ****     *    CYRET_SUCCESS                      The function passed successfully
 364:Generated_Source\PSoC5/CAN_1_TX_RX_func.c ****     *    CAN_1_FAIL              The function failed
 365:Generated_Source\PSoC5/CAN_1_TX_RX_func.c ****     *
 366:Generated_Source\PSoC5/CAN_1_TX_RX_func.c ****     *******************************************************************************/
 367:Generated_Source\PSoC5/CAN_1_TX_RX_func.c ****     uint8 CAN_1_SendMsg3(void) 
 368:Generated_Source\PSoC5/CAN_1_TX_RX_func.c ****     {
 369:Generated_Source\PSoC5/CAN_1_TX_RX_func.c ****         uint8 result = CYRET_SUCCESS;
 370:Generated_Source\PSoC5/CAN_1_TX_RX_func.c **** 
 371:Generated_Source\PSoC5/CAN_1_TX_RX_func.c ****         #if (CY_PSOC3 || CY_PSOC5)
 372:Generated_Source\PSoC5/CAN_1_TX_RX_func.c ****             if ((CAN_1_TX[3u].txcmd.byte[0u] & CAN_1_TX_REQUEST_PENDING) != 0u)
 373:Generated_Source\PSoC5/CAN_1_TX_RX_func.c ****         #else  /* CY_PSOC4 */
 374:Generated_Source\PSoC5/CAN_1_TX_RX_func.c ****             if ((CAN_1_TX_CMD_REG(3u) & CAN_1_TX_REQUEST_PENDING) != 0u)
 375:Generated_Source\PSoC5/CAN_1_TX_RX_func.c ****         #endif /* CY_PSOC3 || CY_PSOC5 */
 376:Generated_Source\PSoC5/CAN_1_TX_RX_func.c ****             {
 377:Generated_Source\PSoC5/CAN_1_TX_RX_func.c ****                 result = CAN_1_FAIL;
 378:Generated_Source\PSoC5/CAN_1_TX_RX_func.c ****             }
 379:Generated_Source\PSoC5/CAN_1_TX_RX_func.c ****             else
 380:Generated_Source\PSoC5/CAN_1_TX_RX_func.c ****             {
 381:Generated_Source\PSoC5/CAN_1_TX_RX_func.c ****                 /* `#START MESSAGE_3_TRASMITTED` */
 382:Generated_Source\PSoC5/CAN_1_TX_RX_func.c **** 
 383:Generated_Source\PSoC5/CAN_1_TX_RX_func.c ****                 /* `#END` */
 384:Generated_Source\PSoC5/CAN_1_TX_RX_func.c **** 
 385:Generated_Source\PSoC5/CAN_1_TX_RX_func.c ****                 #ifdef CAN_1_SEND_MSG_3_CALLBACK
 386:Generated_Source\PSoC5/CAN_1_TX_RX_func.c ****                     CAN_1_SendMsg_3_Callback();
 387:Generated_Source\PSoC5/CAN_1_TX_RX_func.c ****                 #endif /* CAN_1_SEND_MSG_3_CALLBACK */
 388:Generated_Source\PSoC5/CAN_1_TX_RX_func.c **** 
 389:Generated_Source\PSoC5/CAN_1_TX_RX_func.c ****                 CY_SET_REG32(CAN_1_TX_CMD_PTR(3u),
 390:Generated_Source\PSoC5/CAN_1_TX_RX_func.c ****                 CY_GET_REG32(CAN_1_TX_CMD_PTR(3u)) | CAN_1_SEND_MESSAGE);
ARM GAS  C:\Users\Schuyler\AppData\Local\Temp\ccsCP5dX.s 			page 14


 391:Generated_Source\PSoC5/CAN_1_TX_RX_func.c ****             }
 392:Generated_Source\PSoC5/CAN_1_TX_RX_func.c **** 
 393:Generated_Source\PSoC5/CAN_1_TX_RX_func.c ****         return (result);
 394:Generated_Source\PSoC5/CAN_1_TX_RX_func.c ****     }
 395:Generated_Source\PSoC5/CAN_1_TX_RX_func.c **** #endif /* CAN_1_TX3_FUNC_ENABLE */
 396:Generated_Source\PSoC5/CAN_1_TX_RX_func.c **** 
 397:Generated_Source\PSoC5/CAN_1_TX_RX_func.c **** 
 398:Generated_Source\PSoC5/CAN_1_TX_RX_func.c **** #if (CAN_1_TX4_FUNC_ENABLE)
 399:Generated_Source\PSoC5/CAN_1_TX_RX_func.c ****     /*******************************************************************************
 400:Generated_Source\PSoC5/CAN_1_TX_RX_func.c ****     * FUNCTION NAME:   CAN_1_SendMsg4
 401:Generated_Source\PSoC5/CAN_1_TX_RX_func.c ****     ********************************************************************************
 402:Generated_Source\PSoC5/CAN_1_TX_RX_func.c ****     *
 403:Generated_Source\PSoC5/CAN_1_TX_RX_func.c ****     * Summary:
 404:Generated_Source\PSoC5/CAN_1_TX_RX_func.c ****     *  This function is the entry point to Transmit Message 4. The function checks
 405:Generated_Source\PSoC5/CAN_1_TX_RX_func.c ****     *  if mailbox 4 doesn't already have un-transmitted messages waiting for
 406:Generated_Source\PSoC5/CAN_1_TX_RX_func.c ****     *  arbitration. If not initiate transmission of the message.
 407:Generated_Source\PSoC5/CAN_1_TX_RX_func.c ****     *  Generated only for the Transmit mailbox designed as Full.
 408:Generated_Source\PSoC5/CAN_1_TX_RX_func.c ****     *
 409:Generated_Source\PSoC5/CAN_1_TX_RX_func.c ****     * Parameters:
 410:Generated_Source\PSoC5/CAN_1_TX_RX_func.c ****     *  None.
 411:Generated_Source\PSoC5/CAN_1_TX_RX_func.c ****     *
 412:Generated_Source\PSoC5/CAN_1_TX_RX_func.c ****     * Return:
 413:Generated_Source\PSoC5/CAN_1_TX_RX_func.c ****     *  Indication if Message has been sent.
 414:Generated_Source\PSoC5/CAN_1_TX_RX_func.c ****     *   Define                             Description
 415:Generated_Source\PSoC5/CAN_1_TX_RX_func.c ****     *    CYRET_SUCCESS                      The function passed successfully
 416:Generated_Source\PSoC5/CAN_1_TX_RX_func.c ****     *    CAN_1_FAIL              The function failed
 417:Generated_Source\PSoC5/CAN_1_TX_RX_func.c ****     *
 418:Generated_Source\PSoC5/CAN_1_TX_RX_func.c ****     *******************************************************************************/
 419:Generated_Source\PSoC5/CAN_1_TX_RX_func.c ****     uint8 CAN_1_SendMsg4(void) 
 420:Generated_Source\PSoC5/CAN_1_TX_RX_func.c ****     {
 421:Generated_Source\PSoC5/CAN_1_TX_RX_func.c ****         uint8 result = CYRET_SUCCESS;
 422:Generated_Source\PSoC5/CAN_1_TX_RX_func.c **** 
 423:Generated_Source\PSoC5/CAN_1_TX_RX_func.c ****         #if (CY_PSOC3 || CY_PSOC5)
 424:Generated_Source\PSoC5/CAN_1_TX_RX_func.c ****             if ((CAN_1_TX[4u].txcmd.byte[0u] & CAN_1_TX_REQUEST_PENDING) != 0u)
 425:Generated_Source\PSoC5/CAN_1_TX_RX_func.c ****         #else  /* CY_PSOC4 */
 426:Generated_Source\PSoC5/CAN_1_TX_RX_func.c ****             if ((CAN_1_TX_CMD_REG(4u) & CAN_1_TX_REQUEST_PENDING) != 0u)
 427:Generated_Source\PSoC5/CAN_1_TX_RX_func.c ****         #endif /* CY_PSOC3 || CY_PSOC5 */
 428:Generated_Source\PSoC5/CAN_1_TX_RX_func.c ****             {
 429:Generated_Source\PSoC5/CAN_1_TX_RX_func.c ****                 result = CAN_1_FAIL;
 430:Generated_Source\PSoC5/CAN_1_TX_RX_func.c ****             }
 431:Generated_Source\PSoC5/CAN_1_TX_RX_func.c ****             else
 432:Generated_Source\PSoC5/CAN_1_TX_RX_func.c ****             {
 433:Generated_Source\PSoC5/CAN_1_TX_RX_func.c ****                 /* `#START MESSAGE_4_TRASMITTED` */
 434:Generated_Source\PSoC5/CAN_1_TX_RX_func.c **** 
 435:Generated_Source\PSoC5/CAN_1_TX_RX_func.c ****                 /* `#END` */
 436:Generated_Source\PSoC5/CAN_1_TX_RX_func.c **** 
 437:Generated_Source\PSoC5/CAN_1_TX_RX_func.c ****                 #ifdef CAN_1_SEND_MSG_4_CALLBACK
 438:Generated_Source\PSoC5/CAN_1_TX_RX_func.c ****                     CAN_1_SendMsg_4_Callback();
 439:Generated_Source\PSoC5/CAN_1_TX_RX_func.c ****                 #endif /* CAN_1_SEND_MSG_4_CALLBACK */
 440:Generated_Source\PSoC5/CAN_1_TX_RX_func.c **** 
 441:Generated_Source\PSoC5/CAN_1_TX_RX_func.c ****                 CY_SET_REG32(CAN_1_TX_CMD_PTR(4u),
 442:Generated_Source\PSoC5/CAN_1_TX_RX_func.c ****                 CY_GET_REG32(CAN_1_TX_CMD_PTR(4u)) | CAN_1_SEND_MESSAGE);
 443:Generated_Source\PSoC5/CAN_1_TX_RX_func.c ****             }
 444:Generated_Source\PSoC5/CAN_1_TX_RX_func.c **** 
 445:Generated_Source\PSoC5/CAN_1_TX_RX_func.c ****         return (result);
 446:Generated_Source\PSoC5/CAN_1_TX_RX_func.c ****     }
 447:Generated_Source\PSoC5/CAN_1_TX_RX_func.c **** #endif /* CAN_1_TX4_FUNC_ENABLE */
ARM GAS  C:\Users\Schuyler\AppData\Local\Temp\ccsCP5dX.s 			page 15


 448:Generated_Source\PSoC5/CAN_1_TX_RX_func.c **** 
 449:Generated_Source\PSoC5/CAN_1_TX_RX_func.c **** 
 450:Generated_Source\PSoC5/CAN_1_TX_RX_func.c **** #if (CAN_1_TX5_FUNC_ENABLE)
 451:Generated_Source\PSoC5/CAN_1_TX_RX_func.c ****     /*******************************************************************************
 452:Generated_Source\PSoC5/CAN_1_TX_RX_func.c ****     * FUNCTION NAME:   CAN_1_SendMsg5
 453:Generated_Source\PSoC5/CAN_1_TX_RX_func.c ****     ********************************************************************************
 454:Generated_Source\PSoC5/CAN_1_TX_RX_func.c ****     *
 455:Generated_Source\PSoC5/CAN_1_TX_RX_func.c ****     * Summary:
 456:Generated_Source\PSoC5/CAN_1_TX_RX_func.c ****     *  This function is the entry point to Transmit Message 5. The function checks
 457:Generated_Source\PSoC5/CAN_1_TX_RX_func.c ****     *  if mailbox 5 doesn't already have un-transmitted messages waiting for
 458:Generated_Source\PSoC5/CAN_1_TX_RX_func.c ****     *  arbitration. If not initiate transmission of the message.
 459:Generated_Source\PSoC5/CAN_1_TX_RX_func.c ****     *  Generated only for the Transmit mailbox designed as Full.
 460:Generated_Source\PSoC5/CAN_1_TX_RX_func.c ****     *
 461:Generated_Source\PSoC5/CAN_1_TX_RX_func.c ****     * Parameters:
 462:Generated_Source\PSoC5/CAN_1_TX_RX_func.c ****     *  None.
 463:Generated_Source\PSoC5/CAN_1_TX_RX_func.c ****     *
 464:Generated_Source\PSoC5/CAN_1_TX_RX_func.c ****     * Return:
 465:Generated_Source\PSoC5/CAN_1_TX_RX_func.c ****     *  Indication if Message has been sent.
 466:Generated_Source\PSoC5/CAN_1_TX_RX_func.c ****     *   Define                             Description
 467:Generated_Source\PSoC5/CAN_1_TX_RX_func.c ****     *    CYRET_SUCCESS                      The function passed successfully
 468:Generated_Source\PSoC5/CAN_1_TX_RX_func.c ****     *    CAN_1_FAIL              The function failed
 469:Generated_Source\PSoC5/CAN_1_TX_RX_func.c ****     *
 470:Generated_Source\PSoC5/CAN_1_TX_RX_func.c ****     *******************************************************************************/
 471:Generated_Source\PSoC5/CAN_1_TX_RX_func.c ****     uint8 CAN_1_SendMsg5(void) 
 472:Generated_Source\PSoC5/CAN_1_TX_RX_func.c ****     {
 473:Generated_Source\PSoC5/CAN_1_TX_RX_func.c ****         uint8 result = CYRET_SUCCESS;
 474:Generated_Source\PSoC5/CAN_1_TX_RX_func.c **** 
 475:Generated_Source\PSoC5/CAN_1_TX_RX_func.c ****         #if (CY_PSOC3 || CY_PSOC5)
 476:Generated_Source\PSoC5/CAN_1_TX_RX_func.c ****             if ((CAN_1_TX[5u].txcmd.byte[0u] & CAN_1_TX_REQUEST_PENDING) != 0u)
 477:Generated_Source\PSoC5/CAN_1_TX_RX_func.c ****         #else  /* CY_PSOC4 */
 478:Generated_Source\PSoC5/CAN_1_TX_RX_func.c ****             if ((CAN_1_TX_CMD_REG(5u) & CAN_1_TX_REQUEST_PENDING) != 0u)
 479:Generated_Source\PSoC5/CAN_1_TX_RX_func.c ****         #endif /* CY_PSOC3 || CY_PSOC5 */
 480:Generated_Source\PSoC5/CAN_1_TX_RX_func.c ****             {
 481:Generated_Source\PSoC5/CAN_1_TX_RX_func.c ****                 result = CAN_1_FAIL;
 482:Generated_Source\PSoC5/CAN_1_TX_RX_func.c ****             }
 483:Generated_Source\PSoC5/CAN_1_TX_RX_func.c ****             else
 484:Generated_Source\PSoC5/CAN_1_TX_RX_func.c ****             {
 485:Generated_Source\PSoC5/CAN_1_TX_RX_func.c ****                 /* `#START MESSAGE_5_TRASMITTED` */
 486:Generated_Source\PSoC5/CAN_1_TX_RX_func.c **** 
 487:Generated_Source\PSoC5/CAN_1_TX_RX_func.c ****                 /* `#END` */
 488:Generated_Source\PSoC5/CAN_1_TX_RX_func.c **** 
 489:Generated_Source\PSoC5/CAN_1_TX_RX_func.c ****                 #ifdef CAN_1_SEND_MSG_5_CALLBACK
 490:Generated_Source\PSoC5/CAN_1_TX_RX_func.c ****                     CAN_1_SendMsg_5_Callback();
 491:Generated_Source\PSoC5/CAN_1_TX_RX_func.c ****                 #endif /* CAN_1_SEND_MSG_5_CALLBACK */
 492:Generated_Source\PSoC5/CAN_1_TX_RX_func.c **** 
 493:Generated_Source\PSoC5/CAN_1_TX_RX_func.c ****                 CY_SET_REG32(CAN_1_TX_CMD_PTR(5u),
 494:Generated_Source\PSoC5/CAN_1_TX_RX_func.c ****                 CY_GET_REG32(CAN_1_TX_CMD_PTR(5u)) | CAN_1_SEND_MESSAGE);
 495:Generated_Source\PSoC5/CAN_1_TX_RX_func.c ****             }
 496:Generated_Source\PSoC5/CAN_1_TX_RX_func.c **** 
 497:Generated_Source\PSoC5/CAN_1_TX_RX_func.c ****         return (result);
 498:Generated_Source\PSoC5/CAN_1_TX_RX_func.c ****     }
 499:Generated_Source\PSoC5/CAN_1_TX_RX_func.c **** #endif /* CAN_1_TX5_FUNC_ENABLE */
 500:Generated_Source\PSoC5/CAN_1_TX_RX_func.c **** 
 501:Generated_Source\PSoC5/CAN_1_TX_RX_func.c **** 
 502:Generated_Source\PSoC5/CAN_1_TX_RX_func.c **** #if (CAN_1_TX6_FUNC_ENABLE)
 503:Generated_Source\PSoC5/CAN_1_TX_RX_func.c ****     /*******************************************************************************
 504:Generated_Source\PSoC5/CAN_1_TX_RX_func.c ****     * FUNCTION NAME:   CAN_1_SendMsg6
ARM GAS  C:\Users\Schuyler\AppData\Local\Temp\ccsCP5dX.s 			page 16


 505:Generated_Source\PSoC5/CAN_1_TX_RX_func.c ****     ********************************************************************************
 506:Generated_Source\PSoC5/CAN_1_TX_RX_func.c ****     *
 507:Generated_Source\PSoC5/CAN_1_TX_RX_func.c ****     * Summary:
 508:Generated_Source\PSoC5/CAN_1_TX_RX_func.c ****     *  This function is the entry point to Transmit Message 6. The function checks
 509:Generated_Source\PSoC5/CAN_1_TX_RX_func.c ****     *  if mailbox 6 doesn't already have un-transmitted messages waiting for
 510:Generated_Source\PSoC5/CAN_1_TX_RX_func.c ****     *  arbitration. If not initiate transmission of the message.
 511:Generated_Source\PSoC5/CAN_1_TX_RX_func.c ****     *  Generated only for the Transmit mailbox designed as Full.
 512:Generated_Source\PSoC5/CAN_1_TX_RX_func.c ****     *
 513:Generated_Source\PSoC5/CAN_1_TX_RX_func.c ****     * Parameters:
 514:Generated_Source\PSoC5/CAN_1_TX_RX_func.c ****     *  None.
 515:Generated_Source\PSoC5/CAN_1_TX_RX_func.c ****     *
 516:Generated_Source\PSoC5/CAN_1_TX_RX_func.c ****     * Return:
 517:Generated_Source\PSoC5/CAN_1_TX_RX_func.c ****     *  Indication if Message has been sent.
 518:Generated_Source\PSoC5/CAN_1_TX_RX_func.c ****     *   Define                             Description
 519:Generated_Source\PSoC5/CAN_1_TX_RX_func.c ****     *    CYRET_SUCCESS                      The function passed successfully
 520:Generated_Source\PSoC5/CAN_1_TX_RX_func.c ****     *    CAN_1_FAIL              The function failed
 521:Generated_Source\PSoC5/CAN_1_TX_RX_func.c ****     *
 522:Generated_Source\PSoC5/CAN_1_TX_RX_func.c ****     *******************************************************************************/
 523:Generated_Source\PSoC5/CAN_1_TX_RX_func.c ****     uint8 CAN_1_SendMsg6(void) 
 524:Generated_Source\PSoC5/CAN_1_TX_RX_func.c ****     {
 525:Generated_Source\PSoC5/CAN_1_TX_RX_func.c ****         uint8 result = CYRET_SUCCESS;
 526:Generated_Source\PSoC5/CAN_1_TX_RX_func.c **** 
 527:Generated_Source\PSoC5/CAN_1_TX_RX_func.c ****         #if (CY_PSOC3 || CY_PSOC5)
 528:Generated_Source\PSoC5/CAN_1_TX_RX_func.c ****             if ((CAN_1_TX[6u].txcmd.byte[0u] & CAN_1_TX_REQUEST_PENDING) != 0u)
 529:Generated_Source\PSoC5/CAN_1_TX_RX_func.c ****         #else  /* CY_PSOC4 */
 530:Generated_Source\PSoC5/CAN_1_TX_RX_func.c ****             if ((CAN_1_TX_CMD_REG(6u) & CAN_1_TX_REQUEST_PENDING) != 0u)
 531:Generated_Source\PSoC5/CAN_1_TX_RX_func.c ****         #endif /* CY_PSOC3 || CY_PSOC5 */
 532:Generated_Source\PSoC5/CAN_1_TX_RX_func.c ****             {
 533:Generated_Source\PSoC5/CAN_1_TX_RX_func.c ****                 result = CAN_1_FAIL;
 534:Generated_Source\PSoC5/CAN_1_TX_RX_func.c ****             }
 535:Generated_Source\PSoC5/CAN_1_TX_RX_func.c ****             else
 536:Generated_Source\PSoC5/CAN_1_TX_RX_func.c ****             {
 537:Generated_Source\PSoC5/CAN_1_TX_RX_func.c ****                 /* `#START MESSAGE_6_TRASMITTED` */
 538:Generated_Source\PSoC5/CAN_1_TX_RX_func.c **** 
 539:Generated_Source\PSoC5/CAN_1_TX_RX_func.c ****                 /* `#END` */
 540:Generated_Source\PSoC5/CAN_1_TX_RX_func.c **** 
 541:Generated_Source\PSoC5/CAN_1_TX_RX_func.c ****                 #ifdef CAN_1_SEND_MSG_6_CALLBACK
 542:Generated_Source\PSoC5/CAN_1_TX_RX_func.c ****                     CAN_1_SendMsg_6_Callback();
 543:Generated_Source\PSoC5/CAN_1_TX_RX_func.c ****                 #endif /* CAN_1_SEND_MSG_6_CALLBACK */
 544:Generated_Source\PSoC5/CAN_1_TX_RX_func.c **** 
 545:Generated_Source\PSoC5/CAN_1_TX_RX_func.c ****                 CY_SET_REG32(CAN_1_TX_CMD_PTR(6u),
 546:Generated_Source\PSoC5/CAN_1_TX_RX_func.c ****                 CY_GET_REG32(CAN_1_TX_CMD_PTR(6u)) | CAN_1_SEND_MESSAGE);
 547:Generated_Source\PSoC5/CAN_1_TX_RX_func.c ****             }
 548:Generated_Source\PSoC5/CAN_1_TX_RX_func.c **** 
 549:Generated_Source\PSoC5/CAN_1_TX_RX_func.c ****         return (result);
 550:Generated_Source\PSoC5/CAN_1_TX_RX_func.c ****     }
 551:Generated_Source\PSoC5/CAN_1_TX_RX_func.c **** #endif /* CAN_1_TX6_FUNC_ENABLE */
 552:Generated_Source\PSoC5/CAN_1_TX_RX_func.c **** 
 553:Generated_Source\PSoC5/CAN_1_TX_RX_func.c **** 
 554:Generated_Source\PSoC5/CAN_1_TX_RX_func.c **** #if (CAN_1_TX7_FUNC_ENABLE)
 555:Generated_Source\PSoC5/CAN_1_TX_RX_func.c ****     /*******************************************************************************
 556:Generated_Source\PSoC5/CAN_1_TX_RX_func.c ****     * FUNCTION NAME:   CAN_1_SendMsg7)
 557:Generated_Source\PSoC5/CAN_1_TX_RX_func.c ****     ********************************************************************************
 558:Generated_Source\PSoC5/CAN_1_TX_RX_func.c ****     *
 559:Generated_Source\PSoC5/CAN_1_TX_RX_func.c ****     * Summary:
 560:Generated_Source\PSoC5/CAN_1_TX_RX_func.c ****     *  This function is the entry point to Transmit Message 7. The function checks
 561:Generated_Source\PSoC5/CAN_1_TX_RX_func.c ****     *  if mailbox 7 doesn't already have un-transmitted messages waiting for
ARM GAS  C:\Users\Schuyler\AppData\Local\Temp\ccsCP5dX.s 			page 17


 562:Generated_Source\PSoC5/CAN_1_TX_RX_func.c ****     *  arbitration. If not initiate transmission of the message.
 563:Generated_Source\PSoC5/CAN_1_TX_RX_func.c ****     *  Generated only for the Transmit mailbox designed as Full.
 564:Generated_Source\PSoC5/CAN_1_TX_RX_func.c ****     *
 565:Generated_Source\PSoC5/CAN_1_TX_RX_func.c ****     * Parameters:
 566:Generated_Source\PSoC5/CAN_1_TX_RX_func.c ****     *  None.
 567:Generated_Source\PSoC5/CAN_1_TX_RX_func.c ****     *
 568:Generated_Source\PSoC5/CAN_1_TX_RX_func.c ****     * Return:
 569:Generated_Source\PSoC5/CAN_1_TX_RX_func.c ****     *  Indication if Message has been sent.
 570:Generated_Source\PSoC5/CAN_1_TX_RX_func.c ****     *   Define                             Description
 571:Generated_Source\PSoC5/CAN_1_TX_RX_func.c ****     *    CYRET_SUCCESS                      The function passed successfully
 572:Generated_Source\PSoC5/CAN_1_TX_RX_func.c ****     *    CAN_1_FAIL              The function failed
 573:Generated_Source\PSoC5/CAN_1_TX_RX_func.c ****     *
 574:Generated_Source\PSoC5/CAN_1_TX_RX_func.c ****     *******************************************************************************/
 575:Generated_Source\PSoC5/CAN_1_TX_RX_func.c ****     uint8 CAN_1_SendMsg7(void) 
 576:Generated_Source\PSoC5/CAN_1_TX_RX_func.c ****     {
 577:Generated_Source\PSoC5/CAN_1_TX_RX_func.c ****         uint8 result = CYRET_SUCCESS;
 578:Generated_Source\PSoC5/CAN_1_TX_RX_func.c **** 
 579:Generated_Source\PSoC5/CAN_1_TX_RX_func.c ****         #if (CY_PSOC3 || CY_PSOC5)
 580:Generated_Source\PSoC5/CAN_1_TX_RX_func.c ****             if ((CAN_1_TX[7u].txcmd.byte[0u] & CAN_1_TX_REQUEST_PENDING) != 0u)
 581:Generated_Source\PSoC5/CAN_1_TX_RX_func.c ****         #else  /* CY_PSOC4 */
 582:Generated_Source\PSoC5/CAN_1_TX_RX_func.c ****             if ((CAN_1_TX_CMD_REG(7u) & CAN_1_TX_REQUEST_PENDING) != 0u)
 583:Generated_Source\PSoC5/CAN_1_TX_RX_func.c ****         #endif /* CY_PSOC3 || CY_PSOC5 */
 584:Generated_Source\PSoC5/CAN_1_TX_RX_func.c ****             {
 585:Generated_Source\PSoC5/CAN_1_TX_RX_func.c ****                 result = CAN_1_FAIL;
 586:Generated_Source\PSoC5/CAN_1_TX_RX_func.c ****             }
 587:Generated_Source\PSoC5/CAN_1_TX_RX_func.c ****             else
 588:Generated_Source\PSoC5/CAN_1_TX_RX_func.c ****             {
 589:Generated_Source\PSoC5/CAN_1_TX_RX_func.c ****                 /* `#START MESSAGE_7_TRASMITTED` */
 590:Generated_Source\PSoC5/CAN_1_TX_RX_func.c **** 
 591:Generated_Source\PSoC5/CAN_1_TX_RX_func.c ****                 /* `#END` */
 592:Generated_Source\PSoC5/CAN_1_TX_RX_func.c **** 
 593:Generated_Source\PSoC5/CAN_1_TX_RX_func.c ****                 #ifdef CAN_1_SEND_MSG_7_CALLBACK
 594:Generated_Source\PSoC5/CAN_1_TX_RX_func.c ****                     CAN_1_SendMsg_7_Callback();
 595:Generated_Source\PSoC5/CAN_1_TX_RX_func.c ****                 #endif /* CAN_1_SEND_MSG_7_CALLBACK */
 596:Generated_Source\PSoC5/CAN_1_TX_RX_func.c **** 
 597:Generated_Source\PSoC5/CAN_1_TX_RX_func.c ****                 CY_SET_REG32(CAN_1_TX_CMD_PTR(7u),
 598:Generated_Source\PSoC5/CAN_1_TX_RX_func.c ****                 CY_GET_REG32(CAN_1_TX_CMD_PTR(7u)) | CAN_1_SEND_MESSAGE);
 599:Generated_Source\PSoC5/CAN_1_TX_RX_func.c ****             }
 600:Generated_Source\PSoC5/CAN_1_TX_RX_func.c **** 
 601:Generated_Source\PSoC5/CAN_1_TX_RX_func.c ****         return (result);
 602:Generated_Source\PSoC5/CAN_1_TX_RX_func.c ****     }
 603:Generated_Source\PSoC5/CAN_1_TX_RX_func.c **** #endif /* CAN_1_TX7_FUNC_ENABLE */
 604:Generated_Source\PSoC5/CAN_1_TX_RX_func.c **** 
 605:Generated_Source\PSoC5/CAN_1_TX_RX_func.c **** 
 606:Generated_Source\PSoC5/CAN_1_TX_RX_func.c **** /*******************************************************************************
 607:Generated_Source\PSoC5/CAN_1_TX_RX_func.c **** * FUNCTION NAME:   CAN_1_ReceiveMsg
 608:Generated_Source\PSoC5/CAN_1_TX_RX_func.c **** ********************************************************************************
 609:Generated_Source\PSoC5/CAN_1_TX_RX_func.c **** *
 610:Generated_Source\PSoC5/CAN_1_TX_RX_func.c **** * Summary:
 611:Generated_Source\PSoC5/CAN_1_TX_RX_func.c **** *  This function is the entry point to Receive Message Interrupt for Basic
 612:Generated_Source\PSoC5/CAN_1_TX_RX_func.c **** *  mailboxes. Clears the Receive particular Message interrupt flag. Generated
 613:Generated_Source\PSoC5/CAN_1_TX_RX_func.c **** *  only if one of the Receive mailboxes is designed as Basic.
 614:Generated_Source\PSoC5/CAN_1_TX_RX_func.c **** *
 615:Generated_Source\PSoC5/CAN_1_TX_RX_func.c **** * Parameters:
 616:Generated_Source\PSoC5/CAN_1_TX_RX_func.c **** *  rxMailbox: The mailbox number that trig Receive Message Interrupt.
 617:Generated_Source\PSoC5/CAN_1_TX_RX_func.c **** *
 618:Generated_Source\PSoC5/CAN_1_TX_RX_func.c **** * Return:
ARM GAS  C:\Users\Schuyler\AppData\Local\Temp\ccsCP5dX.s 			page 18


 619:Generated_Source\PSoC5/CAN_1_TX_RX_func.c **** *  None.
 620:Generated_Source\PSoC5/CAN_1_TX_RX_func.c **** *
 621:Generated_Source\PSoC5/CAN_1_TX_RX_func.c **** * Reentrant:
 622:Generated_Source\PSoC5/CAN_1_TX_RX_func.c **** *  Depends on the Customer code.
 623:Generated_Source\PSoC5/CAN_1_TX_RX_func.c **** *
 624:Generated_Source\PSoC5/CAN_1_TX_RX_func.c **** *******************************************************************************/
 625:Generated_Source\PSoC5/CAN_1_TX_RX_func.c **** void CAN_1_ReceiveMsg(uint8 rxMailbox) 
 626:Generated_Source\PSoC5/CAN_1_TX_RX_func.c **** {
 346              		.loc 1 626 0
 347              		.cfi_startproc
 348              		@ args = 0, pretend = 0, frame = 16
 349              		@ frame_needed = 1, uses_anonymous_args = 0
 350 0000 F0B5     		push	{r4, r5, r6, r7, lr}
 351              		.cfi_def_cfa_offset 20
 352              		.cfi_offset 4, -20
 353              		.cfi_offset 5, -16
 354              		.cfi_offset 6, -12
 355              		.cfi_offset 7, -8
 356              		.cfi_offset 14, -4
 357 0002 8BB0     		sub	sp, sp, #44
 358              		.cfi_def_cfa_offset 64
 359 0004 06AF     		add	r7, sp, #24
 360              		.cfi_def_cfa 7, 40
 361 0006 0346     		mov	r3, r0
 362 0008 FB71     		strb	r3, [r7, #7]
 627:Generated_Source\PSoC5/CAN_1_TX_RX_func.c ****     #if (CY_PSOC3 || CY_PSOC5)
 628:Generated_Source\PSoC5/CAN_1_TX_RX_func.c ****         if ((CAN_1_RX[rxMailbox].rxcmd.byte[0u] & CAN_1_RX_ACK_MSG) != 0u)
 363              		.loc 1 628 0
 364 000a FB79     		ldrb	r3, [r7, #7]	@ zero_extendqisi2
 365 000c 5A01     		lsls	r2, r3, #5
 366 000e 294B     		ldr	r3, .L33
 367 0010 1344     		add	r3, r3, r2
 368 0012 1B78     		ldrb	r3, [r3]
 369 0014 DBB2     		uxtb	r3, r3
 370 0016 03F00103 		and	r3, r3, #1
 371 001a 002B     		cmp	r3, #0
 372 001c 47D0     		beq	.L29
 373              	.LBB2:
 629:Generated_Source\PSoC5/CAN_1_TX_RX_func.c ****     #else  /* CY_PSOC4 */
 630:Generated_Source\PSoC5/CAN_1_TX_RX_func.c ****         if ((CAN_1_RX_CMD_REG(rxMailbox) & CAN_1_RX_ACK_MSG) != 0u)
 631:Generated_Source\PSoC5/CAN_1_TX_RX_func.c ****     #endif /* CY_PSOC3 || CY_PSOC5 */
 632:Generated_Source\PSoC5/CAN_1_TX_RX_func.c ****         {
 633:Generated_Source\PSoC5/CAN_1_TX_RX_func.c ****             /* `#START MESSAGE_BASIC_RECEIVED` */
 634:Generated_Source\PSoC5/CAN_1_TX_RX_func.c ****             
 635:Generated_Source\PSoC5/CAN_1_TX_RX_func.c ****             int ID = CAN_1_GET_RX_ID(rxMailbox);
 374              		.loc 1 635 0
 375 001e FB79     		ldrb	r3, [r7, #7]	@ zero_extendqisi2
 376 0020 5A01     		lsls	r2, r3, #5
 377 0022 244B     		ldr	r3, .L33
 378 0024 1344     		add	r3, r3, r2
 379 0026 9B78     		ldrb	r3, [r3, #2]
 380 0028 DBB2     		uxtb	r3, r3
 381 002a 03F01003 		and	r3, r3, #16
 382 002e 1B11     		asrs	r3, r3, #4
 383 0030 002B     		cmp	r3, #0
 384 0032 07D0     		beq	.L31
 385              		.loc 1 635 0 is_stmt 0 discriminator 1
ARM GAS  C:\Users\Schuyler\AppData\Local\Temp\ccsCP5dX.s 			page 19


 386 0034 FB79     		ldrb	r3, [r7, #7]	@ zero_extendqisi2
 387 0036 5A01     		lsls	r2, r3, #5
 388 0038 1E4B     		ldr	r3, .L33
 389 003a 1344     		add	r3, r3, r2
 390 003c 0433     		adds	r3, r3, #4
 391 003e 1B68     		ldr	r3, [r3]
 392 0040 DB08     		lsrs	r3, r3, #3
 393 0042 06E0     		b	.L32
 394              	.L31:
 395              		.loc 1 635 0 discriminator 2
 396 0044 FB79     		ldrb	r3, [r7, #7]	@ zero_extendqisi2
 397 0046 5A01     		lsls	r2, r3, #5
 398 0048 1A4B     		ldr	r3, .L33
 399 004a 1344     		add	r3, r3, r2
 400 004c 0433     		adds	r3, r3, #4
 401 004e 1B68     		ldr	r3, [r3]
 402 0050 5B0D     		lsrs	r3, r3, #21
 403              	.L32:
 404              		.loc 1 635 0 discriminator 4
 405 0052 FB60     		str	r3, [r7, #12]
 636:Generated_Source\PSoC5/CAN_1_TX_RX_func.c ****             can_receive(CAN_1_RX[rxMailbox], ID);
 406              		.loc 1 636 0 is_stmt 1 discriminator 4
 407 0054 FB79     		ldrb	r3, [r7, #7]	@ zero_extendqisi2
 408 0056 5A01     		lsls	r2, r3, #5
 409 0058 164B     		ldr	r3, .L33
 410 005a 1344     		add	r3, r3, r2
 411 005c FA68     		ldr	r2, [r7, #12]
 412 005e 0492     		str	r2, [sp, #16]
 413 0060 4FF0000C 		mov	ip, #0
 414 0064 D3F800C0 		ldr	ip, [r3]
 415 0068 4FF0000E 		mov	lr, #0
 416 006c D3F804E0 		ldr	lr, [r3, #4]
 417 0070 0026     		movs	r6, #0
 418 0072 9E68     		ldr	r6, [r3, #8]
 419 0074 0025     		movs	r5, #0
 420 0076 DD68     		ldr	r5, [r3, #12]
 421 0078 6C46     		mov	r4, sp
 422 007a 1033     		adds	r3, r3, #16
 423 007c 1868     		ldr	r0, [r3]	@ unaligned
 424 007e 5968     		ldr	r1, [r3, #4]	@ unaligned
 425 0080 9A68     		ldr	r2, [r3, #8]	@ unaligned
 426 0082 DB68     		ldr	r3, [r3, #12]	@ unaligned
 427 0084 0FC4     		stmia	r4!, {r0, r1, r2, r3}
 428 0086 6046     		mov	r0, ip
 429 0088 7146     		mov	r1, lr
 430 008a 3246     		mov	r2, r6
 431 008c 2B46     		mov	r3, r5
 432 008e FFF7FEFF 		bl	can_receive
 637:Generated_Source\PSoC5/CAN_1_TX_RX_func.c **** 
 638:Generated_Source\PSoC5/CAN_1_TX_RX_func.c ****             /* `#END` */
 639:Generated_Source\PSoC5/CAN_1_TX_RX_func.c **** 
 640:Generated_Source\PSoC5/CAN_1_TX_RX_func.c ****             #ifdef CAN_1_RECEIVE_MSG_CALLBACK
 641:Generated_Source\PSoC5/CAN_1_TX_RX_func.c ****                 CAN_1_ReceiveMsg_Callback();
 642:Generated_Source\PSoC5/CAN_1_TX_RX_func.c ****             #endif /* CAN_1_RECEIVE_MSG_CALLBACK */
 643:Generated_Source\PSoC5/CAN_1_TX_RX_func.c **** 
 644:Generated_Source\PSoC5/CAN_1_TX_RX_func.c ****             #if (CY_PSOC3 || CY_PSOC5)
 645:Generated_Source\PSoC5/CAN_1_TX_RX_func.c ****                 CAN_1_RX[rxMailbox].rxcmd.byte[0u] |= CAN_1_RX_ACK_MSG;
ARM GAS  C:\Users\Schuyler\AppData\Local\Temp\ccsCP5dX.s 			page 20


 433              		.loc 1 645 0 discriminator 4
 434 0092 FB79     		ldrb	r3, [r7, #7]	@ zero_extendqisi2
 435 0094 5A01     		lsls	r2, r3, #5
 436 0096 074B     		ldr	r3, .L33
 437 0098 1344     		add	r3, r3, r2
 438 009a FA79     		ldrb	r2, [r7, #7]	@ zero_extendqisi2
 439 009c 5101     		lsls	r1, r2, #5
 440 009e 054A     		ldr	r2, .L33
 441 00a0 0A44     		add	r2, r2, r1
 442 00a2 1278     		ldrb	r2, [r2]
 443 00a4 D2B2     		uxtb	r2, r2
 444 00a6 42F00102 		orr	r2, r2, #1
 445 00aa D2B2     		uxtb	r2, r2
 446 00ac 1A70     		strb	r2, [r3]
 447              	.L29:
 448              	.LBE2:
 646:Generated_Source\PSoC5/CAN_1_TX_RX_func.c ****             #else  /* CY_PSOC4 */
 647:Generated_Source\PSoC5/CAN_1_TX_RX_func.c ****                 CAN_1_RX_CMD_REG(rxMailbox) |= CAN_1_RX_ACK_MSG;
 648:Generated_Source\PSoC5/CAN_1_TX_RX_func.c ****             #endif /* CY_PSOC3 || CY_PSOC5 */
 649:Generated_Source\PSoC5/CAN_1_TX_RX_func.c ****         }
 650:Generated_Source\PSoC5/CAN_1_TX_RX_func.c **** }
 449              		.loc 1 650 0
 450 00ae 1437     		adds	r7, r7, #20
 451              		.cfi_def_cfa_offset 20
 452 00b0 BD46     		mov	sp, r7
 453              		.cfi_def_cfa_register 13
 454              		@ sp needed
 455 00b2 F0BD     		pop	{r4, r5, r6, r7, pc}
 456              	.L34:
 457              		.align	2
 458              	.L33:
 459 00b4 A0A00040 		.word	1073782944
 460              		.cfi_endproc
 461              	.LFE2:
 462              		.size	CAN_1_ReceiveMsg, .-CAN_1_ReceiveMsg
 463              		.section	.text.CAN_1_ReceiveMsg0,"ax",%progbits
 464              		.align	2
 465              		.global	CAN_1_ReceiveMsg0
 466              		.thumb
 467              		.thumb_func
 468              		.type	CAN_1_ReceiveMsg0, %function
 469              	CAN_1_ReceiveMsg0:
 470              	.LFB3:
 651:Generated_Source\PSoC5/CAN_1_TX_RX_func.c **** 
 652:Generated_Source\PSoC5/CAN_1_TX_RX_func.c **** 
 653:Generated_Source\PSoC5/CAN_1_TX_RX_func.c **** #if (CAN_1_RX0_FUNC_ENABLE)
 654:Generated_Source\PSoC5/CAN_1_TX_RX_func.c ****     /*******************************************************************************
 655:Generated_Source\PSoC5/CAN_1_TX_RX_func.c ****     * FUNCTION NAME:   CAN_1_ReceiveMsg0
 656:Generated_Source\PSoC5/CAN_1_TX_RX_func.c ****     ********************************************************************************
 657:Generated_Source\PSoC5/CAN_1_TX_RX_func.c ****     *
 658:Generated_Source\PSoC5/CAN_1_TX_RX_func.c ****     * Summary:
 659:Generated_Source\PSoC5/CAN_1_TX_RX_func.c ****     *  This function is the entry point to Receive Message 0 Interrupt. Clears the
 660:Generated_Source\PSoC5/CAN_1_TX_RX_func.c ****     *  Receive Message 0 interrupt flag. Generated only for the Receive mailbox
 661:Generated_Source\PSoC5/CAN_1_TX_RX_func.c ****     *  designed as Full.
 662:Generated_Source\PSoC5/CAN_1_TX_RX_func.c ****     *
 663:Generated_Source\PSoC5/CAN_1_TX_RX_func.c ****     * Parameters:
 664:Generated_Source\PSoC5/CAN_1_TX_RX_func.c ****     *  None.
ARM GAS  C:\Users\Schuyler\AppData\Local\Temp\ccsCP5dX.s 			page 21


 665:Generated_Source\PSoC5/CAN_1_TX_RX_func.c ****     *
 666:Generated_Source\PSoC5/CAN_1_TX_RX_func.c ****     * Return:
 667:Generated_Source\PSoC5/CAN_1_TX_RX_func.c ****     *  None.
 668:Generated_Source\PSoC5/CAN_1_TX_RX_func.c ****     *
 669:Generated_Source\PSoC5/CAN_1_TX_RX_func.c ****     * Reentrant:
 670:Generated_Source\PSoC5/CAN_1_TX_RX_func.c ****     *  Depends on the Customer code.
 671:Generated_Source\PSoC5/CAN_1_TX_RX_func.c ****     *
 672:Generated_Source\PSoC5/CAN_1_TX_RX_func.c ****     *******************************************************************************/
 673:Generated_Source\PSoC5/CAN_1_TX_RX_func.c ****     void CAN_1_ReceiveMsg0(void) 
 674:Generated_Source\PSoC5/CAN_1_TX_RX_func.c ****     {
 471              		.loc 1 674 0
 472              		.cfi_startproc
 473              		@ args = 0, pretend = 0, frame = 0
 474              		@ frame_needed = 1, uses_anonymous_args = 0
 475              		@ link register save eliminated.
 476 0000 80B4     		push	{r7}
 477              		.cfi_def_cfa_offset 4
 478              		.cfi_offset 7, -4
 479 0002 00AF     		add	r7, sp, #0
 480              		.cfi_def_cfa_register 7
 675:Generated_Source\PSoC5/CAN_1_TX_RX_func.c ****         /* `#START MESSAGE_0_RECEIVED` */
 676:Generated_Source\PSoC5/CAN_1_TX_RX_func.c ****             //GREEN_Write(1);
 677:Generated_Source\PSoC5/CAN_1_TX_RX_func.c ****             //Rx_Data = CAN_1_RX_DATA_BYTE1(0);
 678:Generated_Source\PSoC5/CAN_1_TX_RX_func.c ****             //CyDelay(500);
 679:Generated_Source\PSoC5/CAN_1_TX_RX_func.c ****             //GREEN_Write(0);
 680:Generated_Source\PSoC5/CAN_1_TX_RX_func.c ****             
 681:Generated_Source\PSoC5/CAN_1_TX_RX_func.c ****         /* `#END` */
 682:Generated_Source\PSoC5/CAN_1_TX_RX_func.c **** 
 683:Generated_Source\PSoC5/CAN_1_TX_RX_func.c ****         #ifdef CAN_1_RECEIVE_MSG_0_CALLBACK
 684:Generated_Source\PSoC5/CAN_1_TX_RX_func.c ****             CAN_1_ReceiveMsg_0_Callback();
 685:Generated_Source\PSoC5/CAN_1_TX_RX_func.c ****         #endif /* CAN_1_RECEIVE_MSG_0_CALLBACK */
 686:Generated_Source\PSoC5/CAN_1_TX_RX_func.c **** 
 687:Generated_Source\PSoC5/CAN_1_TX_RX_func.c ****         CAN_1_RX[0u].rxcmd.byte[0u] |= CAN_1_RX_ACK_MSG;
 481              		.loc 1 687 0
 482 0004 054A     		ldr	r2, .L36
 483 0006 054B     		ldr	r3, .L36
 484 0008 1B78     		ldrb	r3, [r3]
 485 000a DBB2     		uxtb	r3, r3
 486 000c 43F00103 		orr	r3, r3, #1
 487 0010 DBB2     		uxtb	r3, r3
 488 0012 1370     		strb	r3, [r2]
 688:Generated_Source\PSoC5/CAN_1_TX_RX_func.c ****     }
 489              		.loc 1 688 0
 490 0014 BD46     		mov	sp, r7
 491              		.cfi_def_cfa_register 13
 492              		@ sp needed
 493 0016 5DF8047B 		ldr	r7, [sp], #4
 494              		.cfi_restore 7
 495              		.cfi_def_cfa_offset 0
 496 001a 7047     		bx	lr
 497              	.L37:
 498              		.align	2
 499              	.L36:
 500 001c A0A00040 		.word	1073782944
 501              		.cfi_endproc
 502              	.LFE3:
 503              		.size	CAN_1_ReceiveMsg0, .-CAN_1_ReceiveMsg0
ARM GAS  C:\Users\Schuyler\AppData\Local\Temp\ccsCP5dX.s 			page 22


 504              		.section	.text.CAN_1_ReceiveMsg1,"ax",%progbits
 505              		.align	2
 506              		.global	CAN_1_ReceiveMsg1
 507              		.thumb
 508              		.thumb_func
 509              		.type	CAN_1_ReceiveMsg1, %function
 510              	CAN_1_ReceiveMsg1:
 511              	.LFB4:
 689:Generated_Source\PSoC5/CAN_1_TX_RX_func.c **** #endif /* CAN_1_RX0_FUNC_ENABLE */
 690:Generated_Source\PSoC5/CAN_1_TX_RX_func.c **** 
 691:Generated_Source\PSoC5/CAN_1_TX_RX_func.c **** 
 692:Generated_Source\PSoC5/CAN_1_TX_RX_func.c **** #if (CAN_1_RX1_FUNC_ENABLE)
 693:Generated_Source\PSoC5/CAN_1_TX_RX_func.c ****     /*******************************************************************************
 694:Generated_Source\PSoC5/CAN_1_TX_RX_func.c ****     * FUNCTION NAME:    CAN_1_ReceiveMsg1
 695:Generated_Source\PSoC5/CAN_1_TX_RX_func.c ****     ********************************************************************************
 696:Generated_Source\PSoC5/CAN_1_TX_RX_func.c ****     *
 697:Generated_Source\PSoC5/CAN_1_TX_RX_func.c ****     * Summary:
 698:Generated_Source\PSoC5/CAN_1_TX_RX_func.c ****     *  This function is the entry point to Receive Message 1 Interrupt. Clears the
 699:Generated_Source\PSoC5/CAN_1_TX_RX_func.c ****     *  Receive Message 1 interrupt flag. Generated only for the Receive mailbox
 700:Generated_Source\PSoC5/CAN_1_TX_RX_func.c ****     *  designed as Full.
 701:Generated_Source\PSoC5/CAN_1_TX_RX_func.c ****     *
 702:Generated_Source\PSoC5/CAN_1_TX_RX_func.c ****     * Parameters:
 703:Generated_Source\PSoC5/CAN_1_TX_RX_func.c ****     *  None.
 704:Generated_Source\PSoC5/CAN_1_TX_RX_func.c ****     *
 705:Generated_Source\PSoC5/CAN_1_TX_RX_func.c ****     * Return:
 706:Generated_Source\PSoC5/CAN_1_TX_RX_func.c ****     *  None.
 707:Generated_Source\PSoC5/CAN_1_TX_RX_func.c ****     *
 708:Generated_Source\PSoC5/CAN_1_TX_RX_func.c ****     * Reentrant:
 709:Generated_Source\PSoC5/CAN_1_TX_RX_func.c ****     *  Depends on the Customer code.
 710:Generated_Source\PSoC5/CAN_1_TX_RX_func.c ****     *
 711:Generated_Source\PSoC5/CAN_1_TX_RX_func.c ****     *******************************************************************************/
 712:Generated_Source\PSoC5/CAN_1_TX_RX_func.c ****     void CAN_1_ReceiveMsg1(void) 
 713:Generated_Source\PSoC5/CAN_1_TX_RX_func.c ****     {
 512              		.loc 1 713 0
 513              		.cfi_startproc
 514              		@ args = 0, pretend = 0, frame = 0
 515              		@ frame_needed = 1, uses_anonymous_args = 0
 516              		@ link register save eliminated.
 517 0000 80B4     		push	{r7}
 518              		.cfi_def_cfa_offset 4
 519              		.cfi_offset 7, -4
 520 0002 00AF     		add	r7, sp, #0
 521              		.cfi_def_cfa_register 7
 714:Generated_Source\PSoC5/CAN_1_TX_RX_func.c ****         /* `#START MESSAGE_1_RECEIVED` */
 715:Generated_Source\PSoC5/CAN_1_TX_RX_func.c ****         
 716:Generated_Source\PSoC5/CAN_1_TX_RX_func.c ****             //RED_Write(1);
 717:Generated_Source\PSoC5/CAN_1_TX_RX_func.c ****             //Rx_Data = CAN_1_RX_DATA_BYTE1(0)
 718:Generated_Source\PSoC5/CAN_1_TX_RX_func.c ****             //CyDelay(500);
 719:Generated_Source\PSoC5/CAN_1_TX_RX_func.c ****             //RED_Write(0);
 720:Generated_Source\PSoC5/CAN_1_TX_RX_func.c **** 
 721:Generated_Source\PSoC5/CAN_1_TX_RX_func.c ****         /* `#END` */
 722:Generated_Source\PSoC5/CAN_1_TX_RX_func.c **** 
 723:Generated_Source\PSoC5/CAN_1_TX_RX_func.c ****         #ifdef CAN_1_RECEIVE_MSG_1_CALLBACK
 724:Generated_Source\PSoC5/CAN_1_TX_RX_func.c ****             CAN_1_ReceiveMsg_1_Callback();
 725:Generated_Source\PSoC5/CAN_1_TX_RX_func.c ****         #endif /* CAN_1_RECEIVE_MSG_1_CALLBACK */
 726:Generated_Source\PSoC5/CAN_1_TX_RX_func.c **** 
 727:Generated_Source\PSoC5/CAN_1_TX_RX_func.c ****         CAN_1_RX[1u].rxcmd.byte[0u] |= CAN_1_RX_ACK_MSG;
ARM GAS  C:\Users\Schuyler\AppData\Local\Temp\ccsCP5dX.s 			page 23


 522              		.loc 1 727 0
 523 0004 054A     		ldr	r2, .L39
 524 0006 054B     		ldr	r3, .L39
 525 0008 1B78     		ldrb	r3, [r3]
 526 000a DBB2     		uxtb	r3, r3
 527 000c 43F00103 		orr	r3, r3, #1
 528 0010 DBB2     		uxtb	r3, r3
 529 0012 1370     		strb	r3, [r2]
 728:Generated_Source\PSoC5/CAN_1_TX_RX_func.c ****     }
 530              		.loc 1 728 0
 531 0014 BD46     		mov	sp, r7
 532              		.cfi_def_cfa_register 13
 533              		@ sp needed
 534 0016 5DF8047B 		ldr	r7, [sp], #4
 535              		.cfi_restore 7
 536              		.cfi_def_cfa_offset 0
 537 001a 7047     		bx	lr
 538              	.L40:
 539              		.align	2
 540              	.L39:
 541 001c C0A00040 		.word	1073782976
 542              		.cfi_endproc
 543              	.LFE4:
 544              		.size	CAN_1_ReceiveMsg1, .-CAN_1_ReceiveMsg1
 545              		.text
 546              	.Letext0:
 547              		.file 2 "Generated_Source\\PSoC5\\cytypes.h"
 548              		.file 3 "Generated_Source\\PSoC5\\CAN_1.h"