ARM GAS  C:\Users\Schuyler\AppData\Local\Temp\ccns8E1r.s 			page 1


   1              		.syntax unified
   2              		.cpu cortex-m3
   3              		.fpu softvfp
   4              		.eabi_attribute 20, 1
   5              		.eabi_attribute 21, 1
   6              		.eabi_attribute 23, 3
   7              		.eabi_attribute 24, 1
   8              		.eabi_attribute 25, 1
   9              		.eabi_attribute 26, 1
  10              		.eabi_attribute 30, 6
  11              		.eabi_attribute 34, 1
  12              		.eabi_attribute 18, 4
  13              		.thumb
  14              		.file	"can_manga.c"
  15              		.text
  16              	.Ltext0:
  17              		.cfi_sections	.debug_frame
  18              		.section	.text.can_receive,"ax",%progbits
  19              		.align	2
  20              		.global	can_receive
  21              		.thumb
  22              		.thumb_func
  23              		.type	can_receive, %function
  24              	can_receive:
  25              	.LFB0:
  26              		.file 1 "can_manga.c"
   1:can_manga.c   **** /* ========================================
   2:can_manga.c   ****  * Can API for FRUCD
   3:can_manga.c   ****  * Schuyler Alschuler 2016 - 2017
   4:can_manga.c   ****  * ========================================
   5:can_manga.c   **** */
   6:can_manga.c   **** 
   7:can_manga.c   **** /*
   8:can_manga.c   ****     Make sure to use macros to access data bytes. They are not in
   9:can_manga.c   ****     the order you expect! These macros were defined by Cypress in CAN_1.h.
  10:can_manga.c   ****     
  11:can_manga.c   ****     CAN_1_DATA_BYTE_1    
  12:can_manga.c   ****     CAN_1_DATA_BYTE_2    
  13:can_manga.c   ****     CAN_1_DATA_BYTE_3    
  14:can_manga.c   ****     CAN_1_DATA_BYTE_4    
  15:can_manga.c   ****     CAN_1_DATA_BYTE_5
  16:can_manga.c   ****     CAN_1_DATA_BYTE_6
  17:can_manga.c   ****     CAN_1_DATA_BYTE_7
  18:can_manga.c   ****     CAN_1_DATA_BYTE_8
  19:can_manga.c   **** */
  20:can_manga.c   **** 
  21:can_manga.c   **** #include "CAN_1.h"
  22:can_manga.c   **** #include "can_manga.h"
  23:can_manga.c   **** #include "can_manga_handlers.h"
  24:can_manga.c   **** 
  25:can_manga.c   **** 
  26:can_manga.c   **** void can_receive(CAN_1_RX_STRUCT msg, int ID)
  27:can_manga.c   **** {
  27              		.loc 1 27 0
  28              		.cfi_startproc
  29              		@ args = 36, pretend = 16, frame = 0
  30              		@ frame_needed = 1, uses_anonymous_args = 0
ARM GAS  C:\Users\Schuyler\AppData\Local\Temp\ccns8E1r.s 			page 2


  31              		@ link register save eliminated.
  32 0000 84B0     		sub	sp, sp, #16
  33              		.cfi_def_cfa_offset 16
  34 0002 90B4     		push	{r4, r7}
  35              		.cfi_def_cfa_offset 24
  36              		.cfi_offset 4, -24
  37              		.cfi_offset 7, -20
  38 0004 00AF     		add	r7, sp, #0
  39              		.cfi_def_cfa_register 7
  40 0006 07F10804 		add	r4, r7, #8
  41 000a 84E80F00 		stmia	r4, {r0, r1, r2, r3}
  28:can_manga.c   ****     switch (ID) 
  29:can_manga.c   ****     {
  30:can_manga.c   **** 
  31:can_manga.c   ****     }
  32:can_manga.c   **** }
  42              		.loc 1 32 0
  43 000e BD46     		mov	sp, r7
  44              		.cfi_def_cfa_register 13
  45              		@ sp needed
  46 0010 90BC     		pop	{r4, r7}
  47              		.cfi_restore 7
  48              		.cfi_restore 4
  49              		.cfi_def_cfa_offset 16
  50 0012 04B0     		add	sp, sp, #16
  51              		.cfi_def_cfa_offset 0
  52 0014 7047     		bx	lr
  53              		.cfi_endproc
  54              	.LFE0:
  55              		.size	can_receive, .-can_receive
  56 0016 00BF     		.section	.text.can_test_send,"ax",%progbits
  57              		.align	2
  58              		.global	can_test_send
  59              		.thumb
  60              		.thumb_func
  61              		.type	can_test_send, %function
  62              	can_test_send:
  63              	.LFB1:
  33:can_manga.c   **** 
  34:can_manga.c   **** void can_test_send()
  35:can_manga.c   **** {
  64              		.loc 1 35 0
  65              		.cfi_startproc
  66              		@ args = 0, pretend = 0, frame = 16
  67              		@ frame_needed = 1, uses_anonymous_args = 0
  68 0000 80B5     		push	{r7, lr}
  69              		.cfi_def_cfa_offset 8
  70              		.cfi_offset 7, -8
  71              		.cfi_offset 14, -4
  72 0002 84B0     		sub	sp, sp, #16
  73              		.cfi_def_cfa_offset 24
  74 0004 00AF     		add	r7, sp, #0
  75              		.cfi_def_cfa_register 7
  36:can_manga.c   ****     //CAN_1_DATA_BYTES_MSG msg;
  37:can_manga.c   ****     CAN_1_TX_MSG HeartB;
  38:can_manga.c   ****     
  39:can_manga.c   ****     HeartB.id = 0x300;
ARM GAS  C:\Users\Schuyler\AppData\Local\Temp\ccns8E1r.s 			page 3


  76              		.loc 1 39 0
  77 0006 4FF44073 		mov	r3, #768
  78 000a 7B60     		str	r3, [r7, #4]
  40:can_manga.c   ****     HeartB.rtr = 0;
  79              		.loc 1 40 0
  80 000c 0023     		movs	r3, #0
  81 000e 3B72     		strb	r3, [r7, #8]
  41:can_manga.c   ****     HeartB.ide = 0;
  82              		.loc 1 41 0
  83 0010 0023     		movs	r3, #0
  84 0012 7B72     		strb	r3, [r7, #9]
  42:can_manga.c   ****     HeartB.dlc = 1;
  85              		.loc 1 42 0
  86 0014 0123     		movs	r3, #1
  87 0016 BB72     		strb	r3, [r7, #10]
  43:can_manga.c   ****     
  44:can_manga.c   ****     HeartB.irq = 0;
  88              		.loc 1 44 0
  89 0018 0023     		movs	r3, #0
  90 001a FB72     		strb	r3, [r7, #11]
  45:can_manga.c   ****     
  46:can_manga.c   ****     HeartB.msg->byte[0] = (uint8) 1;
  91              		.loc 1 46 0
  92 001c FB68     		ldr	r3, [r7, #12]
  93 001e 0122     		movs	r2, #1
  94 0020 1A70     		strb	r2, [r3]
  47:can_manga.c   ****     HeartB.msg->byte[1] = (uint8) 1;
  95              		.loc 1 47 0
  96 0022 FB68     		ldr	r3, [r7, #12]
  97 0024 0122     		movs	r2, #1
  98 0026 5A70     		strb	r2, [r3, #1]
  48:can_manga.c   ****     HeartB.msg->byte[2] = (uint8) 1;
  99              		.loc 1 48 0
 100 0028 FB68     		ldr	r3, [r7, #12]
 101 002a 0122     		movs	r2, #1
 102 002c 9A70     		strb	r2, [r3, #2]
  49:can_manga.c   ****     HeartB.msg->byte[3] = (uint8) 1;
 103              		.loc 1 49 0
 104 002e FB68     		ldr	r3, [r7, #12]
 105 0030 0122     		movs	r2, #1
 106 0032 DA70     		strb	r2, [r3, #3]
  50:can_manga.c   ****     HeartB.msg->byte[4] = (uint8) 1;
 107              		.loc 1 50 0
 108 0034 FB68     		ldr	r3, [r7, #12]
 109 0036 0122     		movs	r2, #1
 110 0038 1A71     		strb	r2, [r3, #4]
  51:can_manga.c   ****     HeartB.msg->byte[5] = (uint8) 1;
 111              		.loc 1 51 0
 112 003a FB68     		ldr	r3, [r7, #12]
 113 003c 0122     		movs	r2, #1
 114 003e 5A71     		strb	r2, [r3, #5]
  52:can_manga.c   ****     HeartB.msg->byte[6] = (uint8) 1;
 115              		.loc 1 52 0
 116 0040 FB68     		ldr	r3, [r7, #12]
 117 0042 0122     		movs	r2, #1
 118 0044 9A71     		strb	r2, [r3, #6]
  53:can_manga.c   ****     HeartB.msg->byte[7] = (uint8) 1;
ARM GAS  C:\Users\Schuyler\AppData\Local\Temp\ccns8E1r.s 			page 4


 119              		.loc 1 53 0
 120 0046 FB68     		ldr	r3, [r7, #12]
 121 0048 0122     		movs	r2, #1
 122 004a DA71     		strb	r2, [r3, #7]
  54:can_manga.c   ****     
  55:can_manga.c   ****     CAN_1_SendMsg(&HeartB);
 123              		.loc 1 55 0
 124 004c 3B1D     		adds	r3, r7, #4
 125 004e 1846     		mov	r0, r3
 126 0050 FFF7FEFF 		bl	CAN_1_SendMsg
  56:can_manga.c   **** }
 127              		.loc 1 56 0
 128 0054 1037     		adds	r7, r7, #16
 129              		.cfi_def_cfa_offset 8
 130 0056 BD46     		mov	sp, r7
 131              		.cfi_def_cfa_register 13
 132              		@ sp needed
 133 0058 80BD     		pop	{r7, pc}
 134              		.cfi_endproc
 135              	.LFE1:
 136              		.size	can_test_send, .-can_test_send
 137 005a 00BF     		.section	.text.can_send,"ax",%progbits
 138              		.align	2
 139              		.global	can_send
 140              		.thumb
 141              		.thumb_func
 142              		.type	can_send, %function
 143              	can_send:
 144              	.LFB2:
  57:can_manga.c   **** 
  58:can_manga.c   **** void can_send(uint8_t data[8], uint32_t ID)
  59:can_manga.c   **** {
 145              		.loc 1 59 0
 146              		.cfi_startproc
 147              		@ args = 0, pretend = 0, frame = 32
 148              		@ frame_needed = 1, uses_anonymous_args = 0
 149 0000 80B5     		push	{r7, lr}
 150              		.cfi_def_cfa_offset 8
 151              		.cfi_offset 7, -8
 152              		.cfi_offset 14, -4
 153 0002 88B0     		sub	sp, sp, #32
 154              		.cfi_def_cfa_offset 40
 155 0004 00AF     		add	r7, sp, #0
 156              		.cfi_def_cfa_register 7
 157 0006 7860     		str	r0, [r7, #4]
 158 0008 3960     		str	r1, [r7]
  60:can_manga.c   ****     uint8_t i, state;
  61:can_manga.c   **** 	CAN_1_TX_MSG message;
  62:can_manga.c   **** 	CAN_1_DATA_BYTES_MSG payload;
  63:can_manga.c   **** 	message.id = ID; 
 159              		.loc 1 63 0
 160 000a 3B68     		ldr	r3, [r7]
 161 000c 3B61     		str	r3, [r7, #16]
  64:can_manga.c   **** 	message.rtr = 0;
 162              		.loc 1 64 0
 163 000e 0023     		movs	r3, #0
 164 0010 3B75     		strb	r3, [r7, #20]
ARM GAS  C:\Users\Schuyler\AppData\Local\Temp\ccns8E1r.s 			page 5


  65:can_manga.c   **** 	message.ide = 0;
 165              		.loc 1 65 0
 166 0012 0023     		movs	r3, #0
 167 0014 7B75     		strb	r3, [r7, #21]
  66:can_manga.c   **** 	message.dlc = 0x08;
 168              		.loc 1 66 0
 169 0016 0823     		movs	r3, #8
 170 0018 BB75     		strb	r3, [r7, #22]
  67:can_manga.c   **** 	message.irq = 0;
 171              		.loc 1 67 0
 172 001a 0023     		movs	r3, #0
 173 001c FB75     		strb	r3, [r7, #23]
  68:can_manga.c   **** 	message.msg = &payload;
 174              		.loc 1 68 0
 175 001e 07F10803 		add	r3, r7, #8
 176 0022 BB61     		str	r3, [r7, #24]
  69:can_manga.c   **** 	for(i=0;i<8;i++)
 177              		.loc 1 69 0
 178 0024 0023     		movs	r3, #0
 179 0026 FB77     		strb	r3, [r7, #31]
 180 0028 0CE0     		b	.L4
 181              	.L5:
  70:can_manga.c   **** 		payload.byte[i] = data[i];
 182              		.loc 1 70 0 discriminator 3
 183 002a FB7F     		ldrb	r3, [r7, #31]	@ zero_extendqisi2
 184 002c FA7F     		ldrb	r2, [r7, #31]	@ zero_extendqisi2
 185 002e 7968     		ldr	r1, [r7, #4]
 186 0030 0A44     		add	r2, r2, r1
 187 0032 1278     		ldrb	r2, [r2]	@ zero_extendqisi2
 188 0034 07F12001 		add	r1, r7, #32
 189 0038 0B44     		add	r3, r3, r1
 190 003a 03F8182C 		strb	r2, [r3, #-24]
  69:can_manga.c   **** 	for(i=0;i<8;i++)
 191              		.loc 1 69 0 discriminator 3
 192 003e FB7F     		ldrb	r3, [r7, #31]	@ zero_extendqisi2
 193 0040 0133     		adds	r3, r3, #1
 194 0042 FB77     		strb	r3, [r7, #31]
 195              	.L4:
  69:can_manga.c   **** 	for(i=0;i<8;i++)
 196              		.loc 1 69 0 is_stmt 0 discriminator 1
 197 0044 FB7F     		ldrb	r3, [r7, #31]	@ zero_extendqisi2
 198 0046 072B     		cmp	r3, #7
 199 0048 EFD9     		bls	.L5
  71:can_manga.c   **** 	CAN_1_SendMsg(&message); 
 200              		.loc 1 71 0 is_stmt 1
 201 004a 07F11003 		add	r3, r7, #16
 202 004e 1846     		mov	r0, r3
 203 0050 FFF7FEFF 		bl	CAN_1_SendMsg
  72:can_manga.c   **** }
 204              		.loc 1 72 0
 205 0054 2037     		adds	r7, r7, #32
 206              		.cfi_def_cfa_offset 8
 207 0056 BD46     		mov	sp, r7
 208              		.cfi_def_cfa_register 13
 209              		@ sp needed
 210 0058 80BD     		pop	{r7, pc}
 211              		.cfi_endproc
ARM GAS  C:\Users\Schuyler\AppData\Local\Temp\ccns8E1r.s 			page 6


 212              	.LFE2:
 213              		.size	can_send, .-can_send
 214 005a 00BF     		.text
 215              	.Letext0:
 216              		.file 2 "c:\\program files (x86)\\cypress\\psoc creator\\4.0\\psoc creator\\import\\gnu\\arm\\4.9.
 217              		.file 3 "c:\\program files (x86)\\cypress\\psoc creator\\4.0\\psoc creator\\import\\gnu\\arm\\4.9.
 218              		.file 4 "Generated_Source\\PSoC5/cytypes.h"
 219              		.file 5 "Generated_Source\\PSoC5/CAN_1.h"