ARM GAS  C:\Users\Schuyler\AppData\Local\Temp\cc7GdtAf.s 			page 1


   1              		.syntax unified
   2              		.cpu cortex-m3
   3              		.fpu softvfp
   4              		.eabi_attribute 20, 1
   5              		.eabi_attribute 21, 1
   6              		.eabi_attribute 23, 3
   7              		.eabi_attribute 24, 1
   8              		.eabi_attribute 25, 1
   9              		.eabi_attribute 26, 1
  10              		.eabi_attribute 30, 6
  11              		.eabi_attribute 34, 1
  12              		.eabi_attribute 18, 4
  13              		.thumb
  14              		.file	"CAN_1_PM.c"
  15              		.text
  16              	.Ltext0:
  17              		.cfi_sections	.debug_frame
  18              		.data
  19              		.align	2
  20              		.type	CAN_1_backup, %object
  21              		.size	CAN_1_backup, 20
  22              	CAN_1_backup:
  23 0000 00       		.byte	0
  24 0001 000000   		.space	3
  25 0004 00000000 		.word	0
  26 0008 01120000 		.word	4609
  27 000c 01000000 		.word	1
  28 0010 8C090200 		.word	133516
  29              		.section	.text.CAN_1_SaveConfig,"ax",%progbits
  30              		.align	2
  31              		.global	CAN_1_SaveConfig
  32              		.thumb
  33              		.thumb_func
  34              		.type	CAN_1_SaveConfig, %function
  35              	CAN_1_SaveConfig:
  36              	.LFB0:
  37              		.file 1 "Generated_Source\\PSoC5\\CAN_1_PM.c"
   1:Generated_Source\PSoC5/CAN_1_PM.c **** /*******************************************************************************
   2:Generated_Source\PSoC5/CAN_1_PM.c **** * File Name: CAN_1_PM.c
   3:Generated_Source\PSoC5/CAN_1_PM.c **** * Version 3.0
   4:Generated_Source\PSoC5/CAN_1_PM.c **** *
   5:Generated_Source\PSoC5/CAN_1_PM.c **** * Description:
   6:Generated_Source\PSoC5/CAN_1_PM.c **** *  This file contains the setup, control and status commands to support
   7:Generated_Source\PSoC5/CAN_1_PM.c **** *  component operations in the low power mode.
   8:Generated_Source\PSoC5/CAN_1_PM.c **** *
   9:Generated_Source\PSoC5/CAN_1_PM.c **** * Note:
  10:Generated_Source\PSoC5/CAN_1_PM.c **** *
  11:Generated_Source\PSoC5/CAN_1_PM.c **** ********************************************************************************
  12:Generated_Source\PSoC5/CAN_1_PM.c **** * Copyright 2008-2015, Cypress Semiconductor Corporation.  All rights reserved.
  13:Generated_Source\PSoC5/CAN_1_PM.c **** * You may use this file only in accordance with the license, terms, conditions,
  14:Generated_Source\PSoC5/CAN_1_PM.c **** * disclaimers, and limitations in the end user license agreement accompanying
  15:Generated_Source\PSoC5/CAN_1_PM.c **** * the software package with which this file was provided.
  16:Generated_Source\PSoC5/CAN_1_PM.c **** *******************************************************************************/
  17:Generated_Source\PSoC5/CAN_1_PM.c **** 
  18:Generated_Source\PSoC5/CAN_1_PM.c **** #include "CAN_1.h"
  19:Generated_Source\PSoC5/CAN_1_PM.c **** 
  20:Generated_Source\PSoC5/CAN_1_PM.c **** static CAN_1_BACKUP_STRUCT CAN_1_backup =
ARM GAS  C:\Users\Schuyler\AppData\Local\Temp\cc7GdtAf.s 			page 2


  21:Generated_Source\PSoC5/CAN_1_PM.c **** {
  22:Generated_Source\PSoC5/CAN_1_PM.c ****     0u,
  23:Generated_Source\PSoC5/CAN_1_PM.c ****     #if (CY_PSOC3 || CY_PSOC5)
  24:Generated_Source\PSoC5/CAN_1_PM.c ****         0u,
  25:Generated_Source\PSoC5/CAN_1_PM.c ****         CAN_1_INIT_INTERRUPT_MASK,
  26:Generated_Source\PSoC5/CAN_1_PM.c ****         CAN_1_MODE_MASK,
  27:Generated_Source\PSoC5/CAN_1_PM.c ****         (((uint32) ((uint32) CAN_1_SYNC_EDGE    << CAN_1_EDGE_MODE_SHIFT))     |
  28:Generated_Source\PSoC5/CAN_1_PM.c ****         ((uint32) ((uint32) CAN_1_SAMPLING_MODE << CAN_1_SAMPLE_MODE_SHIFT))   |
  29:Generated_Source\PSoC5/CAN_1_PM.c ****         ((uint32) ((uint32) CAN_1_CFG_REG_SJW   << CAN_1_CFG_REG_SJW_SHIFT))   |
  30:Generated_Source\PSoC5/CAN_1_PM.c ****         ((uint32) ((uint32) CAN_1_RESET_TYPE    << CAN_1_RESET_SHIFT))         |
  31:Generated_Source\PSoC5/CAN_1_PM.c ****         ((uint32) ((uint32) CAN_1_CFG_REG_TSEG2 << CAN_1_CFG_REG_TSEG2_SHIFT)) |
  32:Generated_Source\PSoC5/CAN_1_PM.c ****         ((uint32) ((uint32) CAN_1_CFG_REG_TSEG1 << CAN_1_CFG_REG_TSEG1_SHIFT)) |
  33:Generated_Source\PSoC5/CAN_1_PM.c ****         ((uint32) ((uint32) CAN_1_ARBITER       << CAN_1_ARBITER_SHIFT))       |
  34:Generated_Source\PSoC5/CAN_1_PM.c ****         ((uint32) ((uint32) CAN_1_BITRATE       << CAN_1_BITRATE_SHIFT)))
  35:Generated_Source\PSoC5/CAN_1_PM.c ****     #endif /* CY_PSOC3 || CY_PSOC5 */
  36:Generated_Source\PSoC5/CAN_1_PM.c **** };
  37:Generated_Source\PSoC5/CAN_1_PM.c **** 
  38:Generated_Source\PSoC5/CAN_1_PM.c **** 
  39:Generated_Source\PSoC5/CAN_1_PM.c **** /*******************************************************************************
  40:Generated_Source\PSoC5/CAN_1_PM.c **** * Function Name: CAN_1_SaveConfig
  41:Generated_Source\PSoC5/CAN_1_PM.c **** ********************************************************************************
  42:Generated_Source\PSoC5/CAN_1_PM.c **** *
  43:Generated_Source\PSoC5/CAN_1_PM.c **** * Summary:
  44:Generated_Source\PSoC5/CAN_1_PM.c **** *  Save the CAN configuration.
  45:Generated_Source\PSoC5/CAN_1_PM.c **** *
  46:Generated_Source\PSoC5/CAN_1_PM.c **** * Parameters:
  47:Generated_Source\PSoC5/CAN_1_PM.c **** *  None.
  48:Generated_Source\PSoC5/CAN_1_PM.c **** *
  49:Generated_Source\PSoC5/CAN_1_PM.c **** * Return:
  50:Generated_Source\PSoC5/CAN_1_PM.c **** *  None.
  51:Generated_Source\PSoC5/CAN_1_PM.c **** *
  52:Generated_Source\PSoC5/CAN_1_PM.c **** * Global Variables:
  53:Generated_Source\PSoC5/CAN_1_PM.c **** *  CAN_1_backup - Modified when non-retention registers are saved.
  54:Generated_Source\PSoC5/CAN_1_PM.c **** *
  55:Generated_Source\PSoC5/CAN_1_PM.c **** * Reentrant:
  56:Generated_Source\PSoC5/CAN_1_PM.c **** *  No.
  57:Generated_Source\PSoC5/CAN_1_PM.c **** *
  58:Generated_Source\PSoC5/CAN_1_PM.c **** *******************************************************************************/
  59:Generated_Source\PSoC5/CAN_1_PM.c **** void CAN_1_SaveConfig(void) 
  60:Generated_Source\PSoC5/CAN_1_PM.c **** {
  38              		.loc 1 60 0
  39              		.cfi_startproc
  40              		@ args = 0, pretend = 0, frame = 0
  41              		@ frame_needed = 1, uses_anonymous_args = 0
  42              		@ link register save eliminated.
  43 0000 80B4     		push	{r7}
  44              		.cfi_def_cfa_offset 4
  45              		.cfi_offset 7, -4
  46 0002 00AF     		add	r7, sp, #0
  47              		.cfi_def_cfa_register 7
  61:Generated_Source\PSoC5/CAN_1_PM.c ****     #if (CY_PSOC3 || CY_PSOC5)
  62:Generated_Source\PSoC5/CAN_1_PM.c ****         CAN_1_backup.intSr = (CY_GET_REG32(CAN_1_INT_SR_PTR));
  48              		.loc 1 62 0
  49 0004 094B     		ldr	r3, .L2
  50 0006 1B68     		ldr	r3, [r3]
  51 0008 094A     		ldr	r2, .L2+4
  52 000a 5360     		str	r3, [r2, #4]
ARM GAS  C:\Users\Schuyler\AppData\Local\Temp\cc7GdtAf.s 			page 3


  63:Generated_Source\PSoC5/CAN_1_PM.c ****         CAN_1_backup.intEn = (CY_GET_REG32(CAN_1_INT_EN_PTR));
  53              		.loc 1 63 0
  54 000c 094B     		ldr	r3, .L2+8
  55 000e 1B68     		ldr	r3, [r3]
  56 0010 074A     		ldr	r2, .L2+4
  57 0012 9360     		str	r3, [r2, #8]
  64:Generated_Source\PSoC5/CAN_1_PM.c ****         CAN_1_backup.cmd = (CY_GET_REG32(CAN_1_CMD_PTR));
  58              		.loc 1 64 0
  59 0014 084B     		ldr	r3, .L2+12
  60 0016 1B68     		ldr	r3, [r3]
  61 0018 054A     		ldr	r2, .L2+4
  62 001a D360     		str	r3, [r2, #12]
  65:Generated_Source\PSoC5/CAN_1_PM.c ****         CAN_1_backup.cfg = (CY_GET_REG32(CAN_1_CFG_PTR));
  63              		.loc 1 65 0
  64 001c 074B     		ldr	r3, .L2+16
  65 001e 1B68     		ldr	r3, [r3]
  66 0020 034A     		ldr	r2, .L2+4
  67 0022 1361     		str	r3, [r2, #16]
  66:Generated_Source\PSoC5/CAN_1_PM.c ****     #endif /* CY_PSOC3 || CY_PSOC5 */
  67:Generated_Source\PSoC5/CAN_1_PM.c **** }
  68              		.loc 1 67 0
  69 0024 BD46     		mov	sp, r7
  70              		.cfi_def_cfa_register 13
  71              		@ sp needed
  72 0026 5DF8047B 		ldr	r7, [sp], #4
  73              		.cfi_restore 7
  74              		.cfi_def_cfa_offset 0
  75 002a 7047     		bx	lr
  76              	.L3:
  77              		.align	2
  78              	.L2:
  79 002c 00A00040 		.word	1073782784
  80 0030 00000000 		.word	CAN_1_backup
  81 0034 04A00040 		.word	1073782788
  82 0038 10A00040 		.word	1073782800
  83 003c 14A00040 		.word	1073782804
  84              		.cfi_endproc
  85              	.LFE0:
  86              		.size	CAN_1_SaveConfig, .-CAN_1_SaveConfig
  87              		.section	.text.CAN_1_RestoreConfig,"ax",%progbits
  88              		.align	2
  89              		.global	CAN_1_RestoreConfig
  90              		.thumb
  91              		.thumb_func
  92              		.type	CAN_1_RestoreConfig, %function
  93              	CAN_1_RestoreConfig:
  94              	.LFB1:
  68:Generated_Source\PSoC5/CAN_1_PM.c **** 
  69:Generated_Source\PSoC5/CAN_1_PM.c **** 
  70:Generated_Source\PSoC5/CAN_1_PM.c **** /*******************************************************************************
  71:Generated_Source\PSoC5/CAN_1_PM.c **** * Function Name: CAN_1_RestoreConfig
  72:Generated_Source\PSoC5/CAN_1_PM.c **** ********************************************************************************
  73:Generated_Source\PSoC5/CAN_1_PM.c **** *
  74:Generated_Source\PSoC5/CAN_1_PM.c **** * Summary:
  75:Generated_Source\PSoC5/CAN_1_PM.c **** *  Restore the CAN configuration.
  76:Generated_Source\PSoC5/CAN_1_PM.c **** *
  77:Generated_Source\PSoC5/CAN_1_PM.c **** * Parameters:
ARM GAS  C:\Users\Schuyler\AppData\Local\Temp\cc7GdtAf.s 			page 4


  78:Generated_Source\PSoC5/CAN_1_PM.c **** *  None.
  79:Generated_Source\PSoC5/CAN_1_PM.c **** *
  80:Generated_Source\PSoC5/CAN_1_PM.c **** * Return:
  81:Generated_Source\PSoC5/CAN_1_PM.c **** *  None.
  82:Generated_Source\PSoC5/CAN_1_PM.c **** *
  83:Generated_Source\PSoC5/CAN_1_PM.c **** * Global Variables:
  84:Generated_Source\PSoC5/CAN_1_PM.c **** *  CAN_1_backup - Used when non-retention registers are restored.
  85:Generated_Source\PSoC5/CAN_1_PM.c **** *
  86:Generated_Source\PSoC5/CAN_1_PM.c **** * Side Effects:
  87:Generated_Source\PSoC5/CAN_1_PM.c **** *  If this API is called without first calling SaveConfig then default values
  88:Generated_Source\PSoC5/CAN_1_PM.c **** *  from Customizer will be in the following registers: CAN_1_INT_SR,
  89:Generated_Source\PSoC5/CAN_1_PM.c **** *  CAN_1_INT_EN, CAN_1_CMD, CAN_1_CFG.
  90:Generated_Source\PSoC5/CAN_1_PM.c **** *
  91:Generated_Source\PSoC5/CAN_1_PM.c **** *******************************************************************************/
  92:Generated_Source\PSoC5/CAN_1_PM.c **** void CAN_1_RestoreConfig(void) 
  93:Generated_Source\PSoC5/CAN_1_PM.c **** {
  95              		.loc 1 93 0
  96              		.cfi_startproc
  97              		@ args = 0, pretend = 0, frame = 0
  98              		@ frame_needed = 1, uses_anonymous_args = 0
  99              		@ link register save eliminated.
 100 0000 80B4     		push	{r7}
 101              		.cfi_def_cfa_offset 4
 102              		.cfi_offset 7, -4
 103 0002 00AF     		add	r7, sp, #0
 104              		.cfi_def_cfa_register 7
  94:Generated_Source\PSoC5/CAN_1_PM.c ****     #if (CY_PSOC3 || CY_PSOC5)
  95:Generated_Source\PSoC5/CAN_1_PM.c ****         CY_SET_REG32(CAN_1_INT_SR_PTR, CAN_1_backup.intSr);
 105              		.loc 1 95 0
 106 0004 094A     		ldr	r2, .L5
 107 0006 0A4B     		ldr	r3, .L5+4
 108 0008 5B68     		ldr	r3, [r3, #4]
 109 000a 1360     		str	r3, [r2]
  96:Generated_Source\PSoC5/CAN_1_PM.c ****         CY_SET_REG32(CAN_1_INT_EN_PTR, CAN_1_backup.intEn);
 110              		.loc 1 96 0
 111 000c 094A     		ldr	r2, .L5+8
 112 000e 084B     		ldr	r3, .L5+4
 113 0010 9B68     		ldr	r3, [r3, #8]
 114 0012 1360     		str	r3, [r2]
  97:Generated_Source\PSoC5/CAN_1_PM.c ****         CY_SET_REG32(CAN_1_CMD_PTR, CAN_1_backup.cmd);
 115              		.loc 1 97 0
 116 0014 084A     		ldr	r2, .L5+12
 117 0016 064B     		ldr	r3, .L5+4
 118 0018 DB68     		ldr	r3, [r3, #12]
 119 001a 1360     		str	r3, [r2]
  98:Generated_Source\PSoC5/CAN_1_PM.c ****         CY_SET_REG32(CAN_1_CFG_PTR, CAN_1_backup.cfg);
 120              		.loc 1 98 0
 121 001c 074A     		ldr	r2, .L5+16
 122 001e 044B     		ldr	r3, .L5+4
 123 0020 1B69     		ldr	r3, [r3, #16]
 124 0022 1360     		str	r3, [r2]
  99:Generated_Source\PSoC5/CAN_1_PM.c ****     #endif /* CY_PSOC3 || CY_PSOC5 */
 100:Generated_Source\PSoC5/CAN_1_PM.c **** }
 125              		.loc 1 100 0
 126 0024 BD46     		mov	sp, r7
 127              		.cfi_def_cfa_register 13
 128              		@ sp needed
ARM GAS  C:\Users\Schuyler\AppData\Local\Temp\cc7GdtAf.s 			page 5


 129 0026 5DF8047B 		ldr	r7, [sp], #4
 130              		.cfi_restore 7
 131              		.cfi_def_cfa_offset 0
 132 002a 7047     		bx	lr
 133              	.L6:
 134              		.align	2
 135              	.L5:
 136 002c 00A00040 		.word	1073782784
 137 0030 00000000 		.word	CAN_1_backup
 138 0034 04A00040 		.word	1073782788
 139 0038 10A00040 		.word	1073782800
 140 003c 14A00040 		.word	1073782804
 141              		.cfi_endproc
 142              	.LFE1:
 143              		.size	CAN_1_RestoreConfig, .-CAN_1_RestoreConfig
 144              		.section	.text.CAN_1_Sleep,"ax",%progbits
 145              		.align	2
 146              		.global	CAN_1_Sleep
 147              		.thumb
 148              		.thumb_func
 149              		.type	CAN_1_Sleep, %function
 150              	CAN_1_Sleep:
 151              	.LFB2:
 101:Generated_Source\PSoC5/CAN_1_PM.c **** 
 102:Generated_Source\PSoC5/CAN_1_PM.c **** 
 103:Generated_Source\PSoC5/CAN_1_PM.c **** /*******************************************************************************
 104:Generated_Source\PSoC5/CAN_1_PM.c **** * Function Name: CAN_1_Sleep
 105:Generated_Source\PSoC5/CAN_1_PM.c **** ********************************************************************************
 106:Generated_Source\PSoC5/CAN_1_PM.c **** *
 107:Generated_Source\PSoC5/CAN_1_PM.c **** * Summary:
 108:Generated_Source\PSoC5/CAN_1_PM.c **** *  Prepares CAN Component to go to sleep.
 109:Generated_Source\PSoC5/CAN_1_PM.c **** *
 110:Generated_Source\PSoC5/CAN_1_PM.c **** * Parameters:
 111:Generated_Source\PSoC5/CAN_1_PM.c **** *  None.
 112:Generated_Source\PSoC5/CAN_1_PM.c **** *
 113:Generated_Source\PSoC5/CAN_1_PM.c **** * Return:
 114:Generated_Source\PSoC5/CAN_1_PM.c **** *  None.
 115:Generated_Source\PSoC5/CAN_1_PM.c **** *
 116:Generated_Source\PSoC5/CAN_1_PM.c **** * Global Variables:
 117:Generated_Source\PSoC5/CAN_1_PM.c **** *  CAN_1_backup - Modified when non-retention registers are saved.
 118:Generated_Source\PSoC5/CAN_1_PM.c **** *
 119:Generated_Source\PSoC5/CAN_1_PM.c **** * Reentrant:
 120:Generated_Source\PSoC5/CAN_1_PM.c **** *  No.
 121:Generated_Source\PSoC5/CAN_1_PM.c **** *
 122:Generated_Source\PSoC5/CAN_1_PM.c **** *******************************************************************************/
 123:Generated_Source\PSoC5/CAN_1_PM.c **** void CAN_1_Sleep(void) 
 124:Generated_Source\PSoC5/CAN_1_PM.c **** {
 152              		.loc 1 124 0
 153              		.cfi_startproc
 154              		@ args = 0, pretend = 0, frame = 0
 155              		@ frame_needed = 1, uses_anonymous_args = 0
 156 0000 80B5     		push	{r7, lr}
 157              		.cfi_def_cfa_offset 8
 158              		.cfi_offset 7, -8
 159              		.cfi_offset 14, -4
 160 0002 00AF     		add	r7, sp, #0
 161              		.cfi_def_cfa_register 7
ARM GAS  C:\Users\Schuyler\AppData\Local\Temp\cc7GdtAf.s 			page 6


 125:Generated_Source\PSoC5/CAN_1_PM.c ****     #if (!(CY_PSOC3 || CY_PSOC5))
 126:Generated_Source\PSoC5/CAN_1_PM.c ****         uint8 i;
 127:Generated_Source\PSoC5/CAN_1_PM.c ****     #endif /* (!(CY_PSOC3 || CY_PSOC5)) */
 128:Generated_Source\PSoC5/CAN_1_PM.c **** 
 129:Generated_Source\PSoC5/CAN_1_PM.c ****     if (0u != (CY_GET_REG32(CAN_1_CMD_PTR) & CAN_1_MODE_MASK))
 162              		.loc 1 129 0
 163 0004 084B     		ldr	r3, .L10
 164 0006 1B68     		ldr	r3, [r3]
 165 0008 03F00103 		and	r3, r3, #1
 166 000c 002B     		cmp	r3, #0
 167 000e 03D0     		beq	.L8
 130:Generated_Source\PSoC5/CAN_1_PM.c ****     {
 131:Generated_Source\PSoC5/CAN_1_PM.c ****         CAN_1_backup.enableState = 1u;
 168              		.loc 1 131 0
 169 0010 064B     		ldr	r3, .L10+4
 170 0012 0122     		movs	r2, #1
 171 0014 1A70     		strb	r2, [r3]
 172 0016 02E0     		b	.L9
 173              	.L8:
 132:Generated_Source\PSoC5/CAN_1_PM.c ****     }
 133:Generated_Source\PSoC5/CAN_1_PM.c ****     else /* CAN block is disabled */
 134:Generated_Source\PSoC5/CAN_1_PM.c ****     {
 135:Generated_Source\PSoC5/CAN_1_PM.c ****         CAN_1_backup.enableState = 0u;
 174              		.loc 1 135 0
 175 0018 044B     		ldr	r3, .L10+4
 176 001a 0022     		movs	r2, #0
 177 001c 1A70     		strb	r2, [r3]
 178              	.L9:
 136:Generated_Source\PSoC5/CAN_1_PM.c ****     }
 137:Generated_Source\PSoC5/CAN_1_PM.c **** 
 138:Generated_Source\PSoC5/CAN_1_PM.c ****     #if (CY_PSOC3 || CY_PSOC5)
 139:Generated_Source\PSoC5/CAN_1_PM.c ****         CAN_1_SaveConfig();
 179              		.loc 1 139 0
 180 001e FFF7FEFF 		bl	CAN_1_SaveConfig
 140:Generated_Source\PSoC5/CAN_1_PM.c ****         (void) CAN_1_Stop();
 181              		.loc 1 140 0
 182 0022 FFF7FEFF 		bl	CAN_1_Stop
 141:Generated_Source\PSoC5/CAN_1_PM.c ****     #else /* CY_PSOC4 */
 142:Generated_Source\PSoC5/CAN_1_PM.c ****         /* Abort respective pending TX message requests */
 143:Generated_Source\PSoC5/CAN_1_PM.c ****         for (i = 0u; i < CAN_1_NUMBER_OF_TX_MAILBOXES; i++)
 144:Generated_Source\PSoC5/CAN_1_PM.c ****         {
 145:Generated_Source\PSoC5/CAN_1_PM.c ****             CAN_1_TX_ABORT_MESSAGE(i);
 146:Generated_Source\PSoC5/CAN_1_PM.c ****         }
 147:Generated_Source\PSoC5/CAN_1_PM.c **** 
 148:Generated_Source\PSoC5/CAN_1_PM.c ****         /* Sets CAN controller to Stop mode */
 149:Generated_Source\PSoC5/CAN_1_PM.c ****         (void) CAN_1_Stop();
 150:Generated_Source\PSoC5/CAN_1_PM.c **** 
 151:Generated_Source\PSoC5/CAN_1_PM.c ****         /* Clear Global Interrupt enable Flag */
 152:Generated_Source\PSoC5/CAN_1_PM.c ****         (void) CAN_1_GlobalIntDisable();
 153:Generated_Source\PSoC5/CAN_1_PM.c ****     #endif /* CY_PSOC3 || CY_PSOC5 */
 154:Generated_Source\PSoC5/CAN_1_PM.c **** }
 183              		.loc 1 154 0
 184 0026 80BD     		pop	{r7, pc}
 185              	.L11:
 186              		.align	2
 187              	.L10:
 188 0028 10A00040 		.word	1073782800
ARM GAS  C:\Users\Schuyler\AppData\Local\Temp\cc7GdtAf.s 			page 7


 189 002c 00000000 		.word	CAN_1_backup
 190              		.cfi_endproc
 191              	.LFE2:
 192              		.size	CAN_1_Sleep, .-CAN_1_Sleep
 193              		.section	.text.CAN_1_Wakeup,"ax",%progbits
 194              		.align	2
 195              		.global	CAN_1_Wakeup
 196              		.thumb
 197              		.thumb_func
 198              		.type	CAN_1_Wakeup, %function
 199              	CAN_1_Wakeup:
 200              	.LFB3:
 155:Generated_Source\PSoC5/CAN_1_PM.c **** 
 156:Generated_Source\PSoC5/CAN_1_PM.c **** 
 157:Generated_Source\PSoC5/CAN_1_PM.c **** /*******************************************************************************
 158:Generated_Source\PSoC5/CAN_1_PM.c **** * Function Name: CAN_1_Wakeup
 159:Generated_Source\PSoC5/CAN_1_PM.c **** ********************************************************************************
 160:Generated_Source\PSoC5/CAN_1_PM.c **** *
 161:Generated_Source\PSoC5/CAN_1_PM.c **** * Summary:
 162:Generated_Source\PSoC5/CAN_1_PM.c **** *  Prepares CAN Component to wake up.
 163:Generated_Source\PSoC5/CAN_1_PM.c **** *
 164:Generated_Source\PSoC5/CAN_1_PM.c **** * Parameters:
 165:Generated_Source\PSoC5/CAN_1_PM.c **** *  None.
 166:Generated_Source\PSoC5/CAN_1_PM.c **** *
 167:Generated_Source\PSoC5/CAN_1_PM.c **** * Return:
 168:Generated_Source\PSoC5/CAN_1_PM.c **** *  None.
 169:Generated_Source\PSoC5/CAN_1_PM.c **** *
 170:Generated_Source\PSoC5/CAN_1_PM.c **** * Global Variables:
 171:Generated_Source\PSoC5/CAN_1_PM.c **** *  CAN_1_backup - Used when non-retention registers are restored.
 172:Generated_Source\PSoC5/CAN_1_PM.c **** *
 173:Generated_Source\PSoC5/CAN_1_PM.c **** * Reentrant:
 174:Generated_Source\PSoC5/CAN_1_PM.c **** *  No.
 175:Generated_Source\PSoC5/CAN_1_PM.c **** *
 176:Generated_Source\PSoC5/CAN_1_PM.c **** *******************************************************************************/
 177:Generated_Source\PSoC5/CAN_1_PM.c **** void CAN_1_Wakeup(void) 
 178:Generated_Source\PSoC5/CAN_1_PM.c **** {
 201              		.loc 1 178 0
 202              		.cfi_startproc
 203              		@ args = 0, pretend = 0, frame = 0
 204              		@ frame_needed = 1, uses_anonymous_args = 0
 205 0000 80B5     		push	{r7, lr}
 206              		.cfi_def_cfa_offset 8
 207              		.cfi_offset 7, -8
 208              		.cfi_offset 14, -4
 209 0002 00AF     		add	r7, sp, #0
 210              		.cfi_def_cfa_register 7
 179:Generated_Source\PSoC5/CAN_1_PM.c ****     #if (CY_PSOC3 || CY_PSOC5)
 180:Generated_Source\PSoC5/CAN_1_PM.c ****         /* Enable CAN block in Active mode */
 181:Generated_Source\PSoC5/CAN_1_PM.c ****         CAN_1_PM_ACT_CFG_REG |= CAN_1_ACT_PWR_EN;
 211              		.loc 1 181 0
 212 0004 0D4A     		ldr	r2, .L14
 213 0006 0D4B     		ldr	r3, .L14
 214 0008 1B78     		ldrb	r3, [r3]
 215 000a DBB2     		uxtb	r3, r3
 216 000c 43F00103 		orr	r3, r3, #1
 217 0010 DBB2     		uxtb	r3, r3
 218 0012 1370     		strb	r3, [r2]
ARM GAS  C:\Users\Schuyler\AppData\Local\Temp\cc7GdtAf.s 			page 8


 182:Generated_Source\PSoC5/CAN_1_PM.c ****         /* Enable CAN block in Alternate Active (Standby) mode */
 183:Generated_Source\PSoC5/CAN_1_PM.c ****         CAN_1_PM_STBY_CFG_REG |= CAN_1_STBY_PWR_EN;
 219              		.loc 1 183 0
 220 0014 0A4A     		ldr	r2, .L14+4
 221 0016 0A4B     		ldr	r3, .L14+4
 222 0018 1B78     		ldrb	r3, [r3]
 223 001a DBB2     		uxtb	r3, r3
 224 001c 43F00103 		orr	r3, r3, #1
 225 0020 DBB2     		uxtb	r3, r3
 226 0022 1370     		strb	r3, [r2]
 184:Generated_Source\PSoC5/CAN_1_PM.c **** 
 185:Generated_Source\PSoC5/CAN_1_PM.c ****         CAN_1_RestoreConfig();
 227              		.loc 1 185 0
 228 0024 FFF7FEFF 		bl	CAN_1_RestoreConfig
 186:Generated_Source\PSoC5/CAN_1_PM.c **** 
 187:Generated_Source\PSoC5/CAN_1_PM.c ****         /* Reconfigure Rx and Tx Buffers control registers */
 188:Generated_Source\PSoC5/CAN_1_PM.c ****         (void) CAN_1_RxTxBuffersConfig();
 229              		.loc 1 188 0
 230 0028 FFF7FEFF 		bl	CAN_1_RxTxBuffersConfig
 189:Generated_Source\PSoC5/CAN_1_PM.c **** 
 190:Generated_Source\PSoC5/CAN_1_PM.c ****         if (CAN_1_backup.enableState != 0u)
 231              		.loc 1 190 0
 232 002c 054B     		ldr	r3, .L14+8
 233 002e 1B78     		ldrb	r3, [r3]	@ zero_extendqisi2
 234 0030 002B     		cmp	r3, #0
 235 0032 01D0     		beq	.L12
 191:Generated_Source\PSoC5/CAN_1_PM.c ****         {
 192:Generated_Source\PSoC5/CAN_1_PM.c ****             /* Enable component's operation */
 193:Generated_Source\PSoC5/CAN_1_PM.c ****             (void) CAN_1_Enable();
 236              		.loc 1 193 0
 237 0034 FFF7FEFF 		bl	CAN_1_Enable
 238              	.L12:
 194:Generated_Source\PSoC5/CAN_1_PM.c ****         } /* Do nothing if component's block was disabled before */
 195:Generated_Source\PSoC5/CAN_1_PM.c ****     #else /* CY_PSOC4 */
 196:Generated_Source\PSoC5/CAN_1_PM.c ****         /* Clear all INT_STATUS bits */
 197:Generated_Source\PSoC5/CAN_1_PM.c ****         CAN_1_INT_SR_REG = CAN_1_INT_STATUS_MASK;
 198:Generated_Source\PSoC5/CAN_1_PM.c **** 
 199:Generated_Source\PSoC5/CAN_1_PM.c ****         /* Set Global Interrupt enable Flag */
 200:Generated_Source\PSoC5/CAN_1_PM.c ****         (void) CAN_1_GlobalIntEnable();
 201:Generated_Source\PSoC5/CAN_1_PM.c **** 
 202:Generated_Source\PSoC5/CAN_1_PM.c ****         if (CAN_1_backup.enableState != 0u)
 203:Generated_Source\PSoC5/CAN_1_PM.c ****         {
 204:Generated_Source\PSoC5/CAN_1_PM.c ****             (void) CAN_1_Enable();
 205:Generated_Source\PSoC5/CAN_1_PM.c ****         } /* Do nothing if component's block was disabled before */
 206:Generated_Source\PSoC5/CAN_1_PM.c ****     #endif /* CY_PSOC3 || CY_PSOC5 */
 207:Generated_Source\PSoC5/CAN_1_PM.c **** }
 239              		.loc 1 207 0
 240 0038 80BD     		pop	{r7, pc}
 241              	.L15:
 242 003a 00BF     		.align	2
 243              	.L14:
 244 003c A6430040 		.word	1073759142
 245 0040 B6430040 		.word	1073759158
 246 0044 00000000 		.word	CAN_1_backup
 247              		.cfi_endproc
 248              	.LFE3:
 249              		.size	CAN_1_Wakeup, .-CAN_1_Wakeup
ARM GAS  C:\Users\Schuyler\AppData\Local\Temp\cc7GdtAf.s 			page 9


 250              		.text
 251              	.Letext0:
 252              		.file 2 "Generated_Source\\PSoC5\\cytypes.h"
 253              		.file 3 "Generated_Source\\PSoC5\\CAN_1.h"