ARM GAS  C:\Users\Schuyler\AppData\Local\Temp\ccrY9J4f.s 			page 1


   1              		.syntax unified
   2              		.cpu cortex-m3
   3              		.fpu softvfp
   4              		.eabi_attribute 20, 1
   5              		.eabi_attribute 21, 1
   6              		.eabi_attribute 23, 3
   7              		.eabi_attribute 24, 1
   8              		.eabi_attribute 25, 1
   9              		.eabi_attribute 26, 1
  10              		.eabi_attribute 30, 6
  11              		.eabi_attribute 34, 1
  12              		.eabi_attribute 18, 4
  13              		.thumb
  14              		.file	"CAN_1_TX_RX_func.c"
  15              		.text
  16              	.Ltext0:
  17              		.cfi_sections	.debug_frame
  18              		.section	.text.CAN_1_SendMsg,"ax",%progbits
  19              		.align	2
  20              		.global	CAN_1_SendMsg
  21              		.thumb
  22              		.thumb_func
  23              		.type	CAN_1_SendMsg, %function
  24              	CAN_1_SendMsg:
  25              	.LFB0:
  26              		.file 1 ".\\Generated_Source\\PSoC5\\CAN_1_TX_RX_func.c"
   1:.\Generated_Source\PSoC5/CAN_1_TX_RX_func.c **** /*******************************************************************************
   2:.\Generated_Source\PSoC5/CAN_1_TX_RX_func.c **** * File Name: CAN_1_TX_RX_func.c
   3:.\Generated_Source\PSoC5/CAN_1_TX_RX_func.c **** * Version 2.30
   4:.\Generated_Source\PSoC5/CAN_1_TX_RX_func.c **** *
   5:.\Generated_Source\PSoC5/CAN_1_TX_RX_func.c **** * Description:
   6:.\Generated_Source\PSoC5/CAN_1_TX_RX_func.c **** *  There are fucntions process "Full" Receive and Transmit mailboxes:
   7:.\Generated_Source\PSoC5/CAN_1_TX_RX_func.c **** *     - CAN_1_SendMsg0-7();
   8:.\Generated_Source\PSoC5/CAN_1_TX_RX_func.c **** *     - CAN_1_ReceiveMsg0-15();
   9:.\Generated_Source\PSoC5/CAN_1_TX_RX_func.c **** *  Transmition of message, and receive routine for "Basic" mailboxes:
  10:.\Generated_Source\PSoC5/CAN_1_TX_RX_func.c **** *     - CAN_1_SendMsg();
  11:.\Generated_Source\PSoC5/CAN_1_TX_RX_func.c **** *     - CAN_1_TxCancel();
  12:.\Generated_Source\PSoC5/CAN_1_TX_RX_func.c **** *     - CAN_1_ReceiveMsg();
  13:.\Generated_Source\PSoC5/CAN_1_TX_RX_func.c **** *
  14:.\Generated_Source\PSoC5/CAN_1_TX_RX_func.c **** *  Note:
  15:.\Generated_Source\PSoC5/CAN_1_TX_RX_func.c **** *   None
  16:.\Generated_Source\PSoC5/CAN_1_TX_RX_func.c **** *
  17:.\Generated_Source\PSoC5/CAN_1_TX_RX_func.c **** ********************************************************************************
  18:.\Generated_Source\PSoC5/CAN_1_TX_RX_func.c **** * Copyright 2008-2012, Cypress Semiconductor Corporation.  All rights reserved.
  19:.\Generated_Source\PSoC5/CAN_1_TX_RX_func.c **** * You may use this file only in accordance with the license, terms, conditions,
  20:.\Generated_Source\PSoC5/CAN_1_TX_RX_func.c **** * disclaimers, and limitations in the end user license agreement accompanying
  21:.\Generated_Source\PSoC5/CAN_1_TX_RX_func.c **** * the software package with which this file was provided.
  22:.\Generated_Source\PSoC5/CAN_1_TX_RX_func.c **** *******************************************************************************/
  23:.\Generated_Source\PSoC5/CAN_1_TX_RX_func.c **** 
  24:.\Generated_Source\PSoC5/CAN_1_TX_RX_func.c **** #include "CAN_1.h"
  25:.\Generated_Source\PSoC5/CAN_1_TX_RX_func.c **** 
  26:.\Generated_Source\PSoC5/CAN_1_TX_RX_func.c **** /* `#START TX_RX_FUNCTION` */
  27:.\Generated_Source\PSoC5/CAN_1_TX_RX_func.c **** #include "GREEN.h"
  28:.\Generated_Source\PSoC5/CAN_1_TX_RX_func.c **** #include "RED.h"
  29:.\Generated_Source\PSoC5/CAN_1_TX_RX_func.c **** extern uint8 Rx_Data;
  30:.\Generated_Source\PSoC5/CAN_1_TX_RX_func.c **** /* `#END` */
  31:.\Generated_Source\PSoC5/CAN_1_TX_RX_func.c **** 
ARM GAS  C:\Users\Schuyler\AppData\Local\Temp\ccrY9J4f.s 			page 2


  32:.\Generated_Source\PSoC5/CAN_1_TX_RX_func.c **** 
  33:.\Generated_Source\PSoC5/CAN_1_TX_RX_func.c **** /*******************************************************************************
  34:.\Generated_Source\PSoC5/CAN_1_TX_RX_func.c **** * FUNCTION NAME:   CAN_1_SendMsg
  35:.\Generated_Source\PSoC5/CAN_1_TX_RX_func.c **** ********************************************************************************
  36:.\Generated_Source\PSoC5/CAN_1_TX_RX_func.c **** *
  37:.\Generated_Source\PSoC5/CAN_1_TX_RX_func.c **** * Summary:
  38:.\Generated_Source\PSoC5/CAN_1_TX_RX_func.c **** *  This function Send Message from one of Basic mailboxes. Function loop through
  39:.\Generated_Source\PSoC5/CAN_1_TX_RX_func.c **** *  the transmit message buffer designed as Basic CAN mailboxes for first free
  40:.\Generated_Source\PSoC5/CAN_1_TX_RX_func.c **** *  available and send from it. The number of retries is limited.
  41:.\Generated_Source\PSoC5/CAN_1_TX_RX_func.c **** *
  42:.\Generated_Source\PSoC5/CAN_1_TX_RX_func.c **** * Parameters:
  43:.\Generated_Source\PSoC5/CAN_1_TX_RX_func.c **** *  message: Pointer to structure that contain all required data to send message.
  44:.\Generated_Source\PSoC5/CAN_1_TX_RX_func.c **** *
  45:.\Generated_Source\PSoC5/CAN_1_TX_RX_func.c **** * Return:
  46:.\Generated_Source\PSoC5/CAN_1_TX_RX_func.c **** *  Indication if message has been sent.
  47:.\Generated_Source\PSoC5/CAN_1_TX_RX_func.c **** *   Define                             Description
  48:.\Generated_Source\PSoC5/CAN_1_TX_RX_func.c **** *    CYRET_SUCCESS                      Function passed successfully
  49:.\Generated_Source\PSoC5/CAN_1_TX_RX_func.c **** *    CAN_1_FAIL              Function failed
  50:.\Generated_Source\PSoC5/CAN_1_TX_RX_func.c **** *
  51:.\Generated_Source\PSoC5/CAN_1_TX_RX_func.c **** *******************************************************************************/
  52:.\Generated_Source\PSoC5/CAN_1_TX_RX_func.c **** uint8 CAN_1_SendMsg(const CAN_1_TX_MSG *message) 
  53:.\Generated_Source\PSoC5/CAN_1_TX_RX_func.c **** {
  27              		.loc 1 53 0
  28              		.cfi_startproc
  29              		@ args = 0, pretend = 0, frame = 24
  30              		@ frame_needed = 1, uses_anonymous_args = 0
  31              		@ link register save eliminated.
  32 0000 80B4     		push	{r7}
  33              		.cfi_def_cfa_offset 4
  34              		.cfi_offset 7, -4
  35 0002 87B0     		sub	sp, sp, #28
  36              		.cfi_def_cfa_offset 32
  37 0004 00AF     		add	r7, sp, #0
  38              		.cfi_def_cfa_register 7
  39 0006 7860     		str	r0, [r7, #4]
  54:.\Generated_Source\PSoC5/CAN_1_TX_RX_func.c ****     uint8 i, j, shift;
  55:.\Generated_Source\PSoC5/CAN_1_TX_RX_func.c ****     uint8 retry = 0u;
  40              		.loc 1 55 0
  41 0008 0023     		movs	r3, #0
  42 000a 3B75     		strb	r3, [r7, #20]
  56:.\Generated_Source\PSoC5/CAN_1_TX_RX_func.c ****     uint8 result = CAN_1_FAIL;
  43              		.loc 1 56 0
  44 000c 0123     		movs	r3, #1
  45 000e FB74     		strb	r3, [r7, #19]
  57:.\Generated_Source\PSoC5/CAN_1_TX_RX_func.c ****     uint32 regTemp;
  58:.\Generated_Source\PSoC5/CAN_1_TX_RX_func.c **** 
  59:.\Generated_Source\PSoC5/CAN_1_TX_RX_func.c ****     while (retry < CAN_1_RETRY_NUMBER)
  46              		.loc 1 59 0
  47 0010 92E0     		b	.L2
  48              	.L20:
  60:.\Generated_Source\PSoC5/CAN_1_TX_RX_func.c ****     {
  61:.\Generated_Source\PSoC5/CAN_1_TX_RX_func.c ****         shift = 1u;
  49              		.loc 1 61 0
  50 0012 0123     		movs	r3, #1
  51 0014 7B75     		strb	r3, [r7, #21]
  62:.\Generated_Source\PSoC5/CAN_1_TX_RX_func.c ****         for (i = 0u; i < CAN_1_NUMBER_OF_TX_MAILBOXES; i++)
  52              		.loc 1 62 0
ARM GAS  C:\Users\Schuyler\AppData\Local\Temp\ccrY9J4f.s 			page 3


  53 0016 0023     		movs	r3, #0
  54 0018 FB75     		strb	r3, [r7, #23]
  55 001a 82E0     		b	.L3
  56              	.L17:
  63:.\Generated_Source\PSoC5/CAN_1_TX_RX_func.c ****         {
  64:.\Generated_Source\PSoC5/CAN_1_TX_RX_func.c ****             /* Find Basic TX mailboxes */
  65:.\Generated_Source\PSoC5/CAN_1_TX_RX_func.c ****             if ((CAN_1_TX_MAILBOX_TYPE & shift) == 0u)
  66:.\Generated_Source\PSoC5/CAN_1_TX_RX_func.c ****             {
  67:.\Generated_Source\PSoC5/CAN_1_TX_RX_func.c ****                 /* Find free mailbox */
  68:.\Generated_Source\PSoC5/CAN_1_TX_RX_func.c ****                 if ((CAN_1_BUF_SR_REG.byte[2] & shift) == 0u)
  57              		.loc 1 68 0
  58 001c 4C4B     		ldr	r3, .L22
  59 001e 9B78     		ldrb	r3, [r3, #2]
  60 0020 DAB2     		uxtb	r2, r3
  61 0022 7B7D     		ldrb	r3, [r7, #21]
  62 0024 1340     		ands	r3, r3, r2
  63 0026 DBB2     		uxtb	r3, r3
  64 0028 002B     		cmp	r3, #0
  65 002a 70D1     		bne	.L4
  69:.\Generated_Source\PSoC5/CAN_1_TX_RX_func.c ****                 {
  70:.\Generated_Source\PSoC5/CAN_1_TX_RX_func.c ****                     regTemp = 0u;
  66              		.loc 1 70 0
  67 002c 0023     		movs	r3, #0
  68 002e FB60     		str	r3, [r7, #12]
  71:.\Generated_Source\PSoC5/CAN_1_TX_RX_func.c **** 
  72:.\Generated_Source\PSoC5/CAN_1_TX_RX_func.c ****                     /* Set message parameters */                   
  73:.\Generated_Source\PSoC5/CAN_1_TX_RX_func.c ****                     if ((message->ide) == CAN_1_STANDARD_MESSAGE)
  69              		.loc 1 73 0
  70 0030 7B68     		ldr	r3, [r7, #4]
  71 0032 5B79     		ldrb	r3, [r3, #5]	@ zero_extendqisi2
  72 0034 002B     		cmp	r3, #0
  73 0036 09D1     		bne	.L5
  74:.\Generated_Source\PSoC5/CAN_1_TX_RX_func.c ****                     {
  75:.\Generated_Source\PSoC5/CAN_1_TX_RX_func.c ****                         CAN_1_SET_TX_ID_STANDARD_MSG(i, message->id);                        
  74              		.loc 1 75 0
  75 0038 FB7D     		ldrb	r3, [r7, #23]	@ zero_extendqisi2
  76 003a 1A01     		lsls	r2, r3, #4
  77 003c 454B     		ldr	r3, .L22+4
  78 003e 1344     		add	r3, r3, r2
  79 0040 0433     		adds	r3, r3, #4
  80 0042 7A68     		ldr	r2, [r7, #4]
  81 0044 1268     		ldr	r2, [r2]
  82 0046 5205     		lsls	r2, r2, #21
  83 0048 1A60     		str	r2, [r3]
  84 004a 0BE0     		b	.L6
  85              	.L5:
  76:.\Generated_Source\PSoC5/CAN_1_TX_RX_func.c ****                     }
  77:.\Generated_Source\PSoC5/CAN_1_TX_RX_func.c ****                     else
  78:.\Generated_Source\PSoC5/CAN_1_TX_RX_func.c ****                     {
  79:.\Generated_Source\PSoC5/CAN_1_TX_RX_func.c ****                         regTemp = CAN_1_TX_IDE_MASK;
  86              		.loc 1 79 0
  87 004c 4FF48013 		mov	r3, #1048576
  88 0050 FB60     		str	r3, [r7, #12]
  80:.\Generated_Source\PSoC5/CAN_1_TX_RX_func.c ****                         CAN_1_SET_TX_ID_EXTENDED_MSG(i, message->id);
  89              		.loc 1 80 0
  90 0052 FB7D     		ldrb	r3, [r7, #23]	@ zero_extendqisi2
  91 0054 1A01     		lsls	r2, r3, #4
ARM GAS  C:\Users\Schuyler\AppData\Local\Temp\ccrY9J4f.s 			page 4


  92 0056 3F4B     		ldr	r3, .L22+4
  93 0058 1344     		add	r3, r3, r2
  94 005a 0433     		adds	r3, r3, #4
  95 005c 7A68     		ldr	r2, [r7, #4]
  96 005e 1268     		ldr	r2, [r2]
  97 0060 D200     		lsls	r2, r2, #3
  98 0062 1A60     		str	r2, [r3]
  99              	.L6:
  81:.\Generated_Source\PSoC5/CAN_1_TX_RX_func.c ****                     }
  82:.\Generated_Source\PSoC5/CAN_1_TX_RX_func.c ****                     if (message->dlc < CAN_1_TX_DLC_MAX_VALUE)
 100              		.loc 1 82 0
 101 0064 7B68     		ldr	r3, [r7, #4]
 102 0066 9B79     		ldrb	r3, [r3, #6]	@ zero_extendqisi2
 103 0068 072B     		cmp	r3, #7
 104 006a 06D8     		bhi	.L7
  83:.\Generated_Source\PSoC5/CAN_1_TX_RX_func.c ****                     {
  84:.\Generated_Source\PSoC5/CAN_1_TX_RX_func.c ****                         regTemp |= ((uint32) message->dlc) << CAN_1_TWO_BYTE_OFFSET;
 105              		.loc 1 84 0
 106 006c 7B68     		ldr	r3, [r7, #4]
 107 006e 9B79     		ldrb	r3, [r3, #6]	@ zero_extendqisi2
 108 0070 1B04     		lsls	r3, r3, #16
 109 0072 FA68     		ldr	r2, [r7, #12]
 110 0074 1343     		orrs	r3, r3, r2
 111 0076 FB60     		str	r3, [r7, #12]
 112 0078 03E0     		b	.L8
 113              	.L7:
  85:.\Generated_Source\PSoC5/CAN_1_TX_RX_func.c ****                     }
  86:.\Generated_Source\PSoC5/CAN_1_TX_RX_func.c ****                     else
  87:.\Generated_Source\PSoC5/CAN_1_TX_RX_func.c ****                     {
  88:.\Generated_Source\PSoC5/CAN_1_TX_RX_func.c ****                         regTemp |= CAN_1_TX_DLC_UPPER_VALUE;
 114              		.loc 1 88 0
 115 007a FB68     		ldr	r3, [r7, #12]
 116 007c 43F40023 		orr	r3, r3, #524288
 117 0080 FB60     		str	r3, [r7, #12]
 118              	.L8:
  89:.\Generated_Source\PSoC5/CAN_1_TX_RX_func.c ****                     }
  90:.\Generated_Source\PSoC5/CAN_1_TX_RX_func.c ****                     if ((message->irq) != CAN_1_TRANSMIT_INT_DISABLE)
 119              		.loc 1 90 0
 120 0082 7B68     		ldr	r3, [r7, #4]
 121 0084 DB79     		ldrb	r3, [r3, #7]	@ zero_extendqisi2
 122 0086 002B     		cmp	r3, #0
 123 0088 03D0     		beq	.L9
  91:.\Generated_Source\PSoC5/CAN_1_TX_RX_func.c ****                     {
  92:.\Generated_Source\PSoC5/CAN_1_TX_RX_func.c ****                         regTemp |= CAN_1_TX_INT_ENABLE_MASK;    /* Transmit Interrupt Enable */
 124              		.loc 1 92 0
 125 008a FB68     		ldr	r3, [r7, #12]
 126 008c 43F00403 		orr	r3, r3, #4
 127 0090 FB60     		str	r3, [r7, #12]
 128              	.L9:
  93:.\Generated_Source\PSoC5/CAN_1_TX_RX_func.c ****                     }
  94:.\Generated_Source\PSoC5/CAN_1_TX_RX_func.c **** 
  95:.\Generated_Source\PSoC5/CAN_1_TX_RX_func.c ****                     for (j = 0u; (j < message->dlc) && (j < CAN_1_TX_DLC_MAX_VALUE); j++)
 129              		.loc 1 95 0
 130 0092 0023     		movs	r3, #0
 131 0094 BB75     		strb	r3, [r7, #22]
 132 0096 17E0     		b	.L10
 133              	.L14:
ARM GAS  C:\Users\Schuyler\AppData\Local\Temp\ccrY9J4f.s 			page 5


  96:.\Generated_Source\PSoC5/CAN_1_TX_RX_func.c ****                     {
  97:.\Generated_Source\PSoC5/CAN_1_TX_RX_func.c ****                         CAN_1_TX_DATA_BYTE(i, j) = message->msg->byte[j];
 134              		.loc 1 97 0
 135 0098 FB7D     		ldrb	r3, [r7, #23]	@ zero_extendqisi2
 136 009a 1A01     		lsls	r2, r3, #4
 137 009c 2D4B     		ldr	r3, .L22+4
 138 009e 1344     		add	r3, r3, r2
 139 00a0 BA7D     		ldrb	r2, [r7, #22]	@ zero_extendqisi2
 140 00a2 032A     		cmp	r2, #3
 141 00a4 03D9     		bls	.L11
 142              		.loc 1 97 0 is_stmt 0 discriminator 1
 143 00a6 BA7D     		ldrb	r2, [r7, #22]	@ zero_extendqisi2
 144 00a8 C2F10B02 		rsb	r2, r2, #11
 145 00ac 02E0     		b	.L12
 146              	.L11:
 147              		.loc 1 97 0 discriminator 2
 148 00ae BA7D     		ldrb	r2, [r7, #22]	@ zero_extendqisi2
 149 00b0 C2F10302 		rsb	r2, r2, #3
 150              	.L12:
 151              		.loc 1 97 0 discriminator 3
 152 00b4 7968     		ldr	r1, [r7, #4]
 153 00b6 8868     		ldr	r0, [r1, #8]
 154 00b8 B97D     		ldrb	r1, [r7, #22]	@ zero_extendqisi2
 155 00ba 415C     		ldrb	r1, [r0, r1]	@ zero_extendqisi2
 156 00bc 1344     		add	r3, r3, r2
 157 00be 0A46     		mov	r2, r1
 158 00c0 1A72     		strb	r2, [r3, #8]
  95:.\Generated_Source\PSoC5/CAN_1_TX_RX_func.c ****                     for (j = 0u; (j < message->dlc) && (j < CAN_1_TX_DLC_MAX_VALUE); j++)
 159              		.loc 1 95 0 is_stmt 1 discriminator 3
 160 00c2 BB7D     		ldrb	r3, [r7, #22]	@ zero_extendqisi2
 161 00c4 0133     		adds	r3, r3, #1
 162 00c6 BB75     		strb	r3, [r7, #22]
 163              	.L10:
  95:.\Generated_Source\PSoC5/CAN_1_TX_RX_func.c ****                     for (j = 0u; (j < message->dlc) && (j < CAN_1_TX_DLC_MAX_VALUE); j++)
 164              		.loc 1 95 0 is_stmt 0 discriminator 1
 165 00c8 7B68     		ldr	r3, [r7, #4]
 166 00ca 9B79     		ldrb	r3, [r3, #6]	@ zero_extendqisi2
 167 00cc BA7D     		ldrb	r2, [r7, #22]	@ zero_extendqisi2
 168 00ce 9A42     		cmp	r2, r3
 169 00d0 02D2     		bcs	.L13
  95:.\Generated_Source\PSoC5/CAN_1_TX_RX_func.c ****                     for (j = 0u; (j < message->dlc) && (j < CAN_1_TX_DLC_MAX_VALUE); j++)
 170              		.loc 1 95 0 discriminator 2
 171 00d2 BB7D     		ldrb	r3, [r7, #22]	@ zero_extendqisi2
 172 00d4 072B     		cmp	r3, #7
 173 00d6 DFD9     		bls	.L14
 174              	.L13:
  98:.\Generated_Source\PSoC5/CAN_1_TX_RX_func.c ****                     }
  99:.\Generated_Source\PSoC5/CAN_1_TX_RX_func.c ****                     
 100:.\Generated_Source\PSoC5/CAN_1_TX_RX_func.c ****     /* Disable isr */
 101:.\Generated_Source\PSoC5/CAN_1_TX_RX_func.c ****     CyIntDisable(CAN_1_ISR_NUMBER);
 175              		.loc 1 101 0 is_stmt 1
 176 00d8 1F4B     		ldr	r3, .L22+8
 177 00da 4FF48032 		mov	r2, #65536
 178 00de 1A60     		str	r2, [r3]
 102:.\Generated_Source\PSoC5/CAN_1_TX_RX_func.c **** 
 103:.\Generated_Source\PSoC5/CAN_1_TX_RX_func.c ****                     /* WPN[23] and WPN[3] set to 1 for write to CAN Control reg */
 104:.\Generated_Source\PSoC5/CAN_1_TX_RX_func.c ****                     CY_SET_REG32((reg32 *) &CAN_1_TX[i].txcmd, (regTemp | CAN_1_TX_WPN_SET));
ARM GAS  C:\Users\Schuyler\AppData\Local\Temp\ccrY9J4f.s 			page 6


 179              		.loc 1 104 0
 180 00e0 FB7D     		ldrb	r3, [r7, #23]	@ zero_extendqisi2
 181 00e2 1A01     		lsls	r2, r3, #4
 182 00e4 1B4B     		ldr	r3, .L22+4
 183 00e6 1344     		add	r3, r3, r2
 184 00e8 1A46     		mov	r2, r3
 185 00ea FB68     		ldr	r3, [r7, #12]
 186 00ec 43F40003 		orr	r3, r3, #8388608
 187 00f0 43F00803 		orr	r3, r3, #8
 188 00f4 1360     		str	r3, [r2]
 105:.\Generated_Source\PSoC5/CAN_1_TX_RX_func.c ****                     CY_SET_REG32((reg32 *) &CAN_1_TX[i].txcmd, CAN_1_SEND_MESSAGE);
 189              		.loc 1 105 0
 190 00f6 FB7D     		ldrb	r3, [r7, #23]	@ zero_extendqisi2
 191 00f8 1A01     		lsls	r2, r3, #4
 192 00fa 164B     		ldr	r3, .L22+4
 193 00fc 1344     		add	r3, r3, r2
 194 00fe 0122     		movs	r2, #1
 195 0100 1A60     		str	r2, [r3]
 106:.\Generated_Source\PSoC5/CAN_1_TX_RX_func.c ****                     
 107:.\Generated_Source\PSoC5/CAN_1_TX_RX_func.c ****     /* Enable isr */
 108:.\Generated_Source\PSoC5/CAN_1_TX_RX_func.c ****     CyIntEnable(CAN_1_ISR_NUMBER);
 196              		.loc 1 108 0
 197 0102 164B     		ldr	r3, .L22+12
 198 0104 4FF48032 		mov	r2, #65536
 199 0108 1A60     		str	r2, [r3]
 109:.\Generated_Source\PSoC5/CAN_1_TX_RX_func.c **** 
 110:.\Generated_Source\PSoC5/CAN_1_TX_RX_func.c ****                     result = CYRET_SUCCESS;
 200              		.loc 1 110 0
 201 010a 0023     		movs	r3, #0
 202 010c FB74     		strb	r3, [r7, #19]
 203              	.L4:
 111:.\Generated_Source\PSoC5/CAN_1_TX_RX_func.c ****                 }
 112:.\Generated_Source\PSoC5/CAN_1_TX_RX_func.c ****             }
 113:.\Generated_Source\PSoC5/CAN_1_TX_RX_func.c ****             shift <<= 1u;
 204              		.loc 1 113 0
 205 010e 7B7D     		ldrb	r3, [r7, #21]
 206 0110 5B00     		lsls	r3, r3, #1
 207 0112 7B75     		strb	r3, [r7, #21]
 114:.\Generated_Source\PSoC5/CAN_1_TX_RX_func.c ****             if (result == CYRET_SUCCESS)
 208              		.loc 1 114 0
 209 0114 FB7C     		ldrb	r3, [r7, #19]	@ zero_extendqisi2
 210 0116 002B     		cmp	r3, #0
 211 0118 00D1     		bne	.L15
 115:.\Generated_Source\PSoC5/CAN_1_TX_RX_func.c ****             {
 116:.\Generated_Source\PSoC5/CAN_1_TX_RX_func.c ****                 break;
 212              		.loc 1 116 0
 213 011a 06E0     		b	.L16
 214              	.L15:
  62:.\Generated_Source\PSoC5/CAN_1_TX_RX_func.c ****         for (i = 0u; i < CAN_1_NUMBER_OF_TX_MAILBOXES; i++)
 215              		.loc 1 62 0
 216 011c FB7D     		ldrb	r3, [r7, #23]	@ zero_extendqisi2
 217 011e 0133     		adds	r3, r3, #1
 218 0120 FB75     		strb	r3, [r7, #23]
 219              	.L3:
  62:.\Generated_Source\PSoC5/CAN_1_TX_RX_func.c ****         for (i = 0u; i < CAN_1_NUMBER_OF_TX_MAILBOXES; i++)
 220              		.loc 1 62 0 is_stmt 0 discriminator 1
 221 0122 FB7D     		ldrb	r3, [r7, #23]	@ zero_extendqisi2
ARM GAS  C:\Users\Schuyler\AppData\Local\Temp\ccrY9J4f.s 			page 7


 222 0124 072B     		cmp	r3, #7
 223 0126 7FF679AF 		bls	.L17
 224              	.L16:
 117:.\Generated_Source\PSoC5/CAN_1_TX_RX_func.c ****             }
 118:.\Generated_Source\PSoC5/CAN_1_TX_RX_func.c ****         }
 119:.\Generated_Source\PSoC5/CAN_1_TX_RX_func.c ****         if (result == CYRET_SUCCESS)
 225              		.loc 1 119 0 is_stmt 1
 226 012a FB7C     		ldrb	r3, [r7, #19]	@ zero_extendqisi2
 227 012c 002B     		cmp	r3, #0
 228 012e 00D1     		bne	.L18
 120:.\Generated_Source\PSoC5/CAN_1_TX_RX_func.c ****         {
 121:.\Generated_Source\PSoC5/CAN_1_TX_RX_func.c ****             break;
 229              		.loc 1 121 0
 230 0130 06E0     		b	.L19
 231              	.L18:
 122:.\Generated_Source\PSoC5/CAN_1_TX_RX_func.c ****         }
 123:.\Generated_Source\PSoC5/CAN_1_TX_RX_func.c ****         else
 124:.\Generated_Source\PSoC5/CAN_1_TX_RX_func.c ****         {
 125:.\Generated_Source\PSoC5/CAN_1_TX_RX_func.c ****             retry++;
 232              		.loc 1 125 0
 233 0132 3B7D     		ldrb	r3, [r7, #20]	@ zero_extendqisi2
 234 0134 0133     		adds	r3, r3, #1
 235 0136 3B75     		strb	r3, [r7, #20]
 236              	.L2:
  59:.\Generated_Source\PSoC5/CAN_1_TX_RX_func.c ****     while (retry < CAN_1_RETRY_NUMBER)
 237              		.loc 1 59 0 discriminator 1
 238 0138 3B7D     		ldrb	r3, [r7, #20]	@ zero_extendqisi2
 239 013a 022B     		cmp	r3, #2
 240 013c 7FF669AF 		bls	.L20
 241              	.L19:
 126:.\Generated_Source\PSoC5/CAN_1_TX_RX_func.c ****         }
 127:.\Generated_Source\PSoC5/CAN_1_TX_RX_func.c ****     }
 128:.\Generated_Source\PSoC5/CAN_1_TX_RX_func.c **** 
 129:.\Generated_Source\PSoC5/CAN_1_TX_RX_func.c ****     return (result);
 242              		.loc 1 129 0
 243 0140 FB7C     		ldrb	r3, [r7, #19]	@ zero_extendqisi2
 130:.\Generated_Source\PSoC5/CAN_1_TX_RX_func.c **** }
 244              		.loc 1 130 0
 245 0142 1846     		mov	r0, r3
 246 0144 1C37     		adds	r7, r7, #28
 247 0146 BD46     		mov	sp, r7
 248              		@ sp needed
 249 0148 5DF8047B 		ldr	r7, [sp], #4
 250 014c 7047     		bx	lr
 251              	.L23:
 252 014e 00BF     		.align	2
 253              	.L22:
 254 0150 08A00040 		.word	1073782792
 255 0154 20A00040 		.word	1073782816
 256 0158 80E100E0 		.word	-536813184
 257 015c 00E100E0 		.word	-536813312
 258              		.cfi_endproc
 259              	.LFE0:
 260              		.size	CAN_1_SendMsg, .-CAN_1_SendMsg
 261              		.section	.text.CAN_1_TxCancel,"ax",%progbits
 262              		.align	2
 263              		.global	CAN_1_TxCancel
ARM GAS  C:\Users\Schuyler\AppData\Local\Temp\ccrY9J4f.s 			page 8


 264              		.thumb
 265              		.thumb_func
 266              		.type	CAN_1_TxCancel, %function
 267              	CAN_1_TxCancel:
 268              	.LFB1:
 131:.\Generated_Source\PSoC5/CAN_1_TX_RX_func.c **** 
 132:.\Generated_Source\PSoC5/CAN_1_TX_RX_func.c **** 
 133:.\Generated_Source\PSoC5/CAN_1_TX_RX_func.c **** /*******************************************************************************
 134:.\Generated_Source\PSoC5/CAN_1_TX_RX_func.c **** * FUNCTION NAME:   CAN_1_TxCancel
 135:.\Generated_Source\PSoC5/CAN_1_TX_RX_func.c **** ********************************************************************************
 136:.\Generated_Source\PSoC5/CAN_1_TX_RX_func.c **** *
 137:.\Generated_Source\PSoC5/CAN_1_TX_RX_func.c **** * Summary:
 138:.\Generated_Source\PSoC5/CAN_1_TX_RX_func.c **** *  This function cancel transmission of a message that has been queued for
 139:.\Generated_Source\PSoC5/CAN_1_TX_RX_func.c **** *  transmitted. Values between 0 and 15 are valid.
 140:.\Generated_Source\PSoC5/CAN_1_TX_RX_func.c **** *
 141:.\Generated_Source\PSoC5/CAN_1_TX_RX_func.c **** * Parameters:
 142:.\Generated_Source\PSoC5/CAN_1_TX_RX_func.c **** *  bufferId: Mailbox number.
 143:.\Generated_Source\PSoC5/CAN_1_TX_RX_func.c **** *
 144:.\Generated_Source\PSoC5/CAN_1_TX_RX_func.c **** * Return:
 145:.\Generated_Source\PSoC5/CAN_1_TX_RX_func.c **** *  None.
 146:.\Generated_Source\PSoC5/CAN_1_TX_RX_func.c **** *
 147:.\Generated_Source\PSoC5/CAN_1_TX_RX_func.c **** *******************************************************************************/
 148:.\Generated_Source\PSoC5/CAN_1_TX_RX_func.c **** void CAN_1_TxCancel(uint8 bufferId) 
 149:.\Generated_Source\PSoC5/CAN_1_TX_RX_func.c **** {
 269              		.loc 1 149 0
 270              		.cfi_startproc
 271              		@ args = 0, pretend = 0, frame = 8
 272              		@ frame_needed = 1, uses_anonymous_args = 0
 273              		@ link register save eliminated.
 274 0000 80B4     		push	{r7}
 275              		.cfi_def_cfa_offset 4
 276              		.cfi_offset 7, -4
 277 0002 83B0     		sub	sp, sp, #12
 278              		.cfi_def_cfa_offset 16
 279 0004 00AF     		add	r7, sp, #0
 280              		.cfi_def_cfa_register 7
 281 0006 0346     		mov	r3, r0
 282 0008 FB71     		strb	r3, [r7, #7]
 150:.\Generated_Source\PSoC5/CAN_1_TX_RX_func.c ****     if (bufferId < CAN_1_NUMBER_OF_TX_MAILBOXES)
 283              		.loc 1 150 0
 284 000a FB79     		ldrb	r3, [r7, #7]	@ zero_extendqisi2
 285 000c 072B     		cmp	r3, #7
 286 000e 0DD8     		bhi	.L24
 151:.\Generated_Source\PSoC5/CAN_1_TX_RX_func.c ****     {
 152:.\Generated_Source\PSoC5/CAN_1_TX_RX_func.c ****         CAN_1_TX_ABORT_MESSAGE(bufferId);
 287              		.loc 1 152 0
 288 0010 FB79     		ldrb	r3, [r7, #7]	@ zero_extendqisi2
 289 0012 1A01     		lsls	r2, r3, #4
 290 0014 084B     		ldr	r3, .L26
 291 0016 1344     		add	r3, r3, r2
 292 0018 FA79     		ldrb	r2, [r7, #7]	@ zero_extendqisi2
 293 001a 1101     		lsls	r1, r2, #4
 294 001c 064A     		ldr	r2, .L26
 295 001e 0A44     		add	r2, r2, r1
 296 0020 1278     		ldrb	r2, [r2]
 297 0022 D2B2     		uxtb	r2, r2
 298 0024 42F00202 		orr	r2, r2, #2
ARM GAS  C:\Users\Schuyler\AppData\Local\Temp\ccrY9J4f.s 			page 9


 299 0028 D2B2     		uxtb	r2, r2
 300 002a 1A70     		strb	r2, [r3]
 301              	.L24:
 153:.\Generated_Source\PSoC5/CAN_1_TX_RX_func.c ****     }
 154:.\Generated_Source\PSoC5/CAN_1_TX_RX_func.c **** }
 302              		.loc 1 154 0
 303 002c 0C37     		adds	r7, r7, #12
 304 002e BD46     		mov	sp, r7
 305              		@ sp needed
 306 0030 5DF8047B 		ldr	r7, [sp], #4
 307 0034 7047     		bx	lr
 308              	.L27:
 309 0036 00BF     		.align	2
 310              	.L26:
 311 0038 20A00040 		.word	1073782816
 312              		.cfi_endproc
 313              	.LFE1:
 314              		.size	CAN_1_TxCancel, .-CAN_1_TxCancel
 315              		.section	.text.CAN_1_ReceiveMsg,"ax",%progbits
 316              		.align	2
 317              		.global	CAN_1_ReceiveMsg
 318              		.thumb
 319              		.thumb_func
 320              		.type	CAN_1_ReceiveMsg, %function
 321              	CAN_1_ReceiveMsg:
 322              	.LFB2:
 155:.\Generated_Source\PSoC5/CAN_1_TX_RX_func.c **** 
 156:.\Generated_Source\PSoC5/CAN_1_TX_RX_func.c **** 
 157:.\Generated_Source\PSoC5/CAN_1_TX_RX_func.c **** #if (CAN_1_TX0_FUNC_ENABLE)
 158:.\Generated_Source\PSoC5/CAN_1_TX_RX_func.c ****     /*******************************************************************************
 159:.\Generated_Source\PSoC5/CAN_1_TX_RX_func.c ****     * FUNCTION NAME:   CAN_1_SendMsg0
 160:.\Generated_Source\PSoC5/CAN_1_TX_RX_func.c ****     ********************************************************************************
 161:.\Generated_Source\PSoC5/CAN_1_TX_RX_func.c ****     *
 162:.\Generated_Source\PSoC5/CAN_1_TX_RX_func.c ****     * Summary:
 163:.\Generated_Source\PSoC5/CAN_1_TX_RX_func.c ****     *  This function is entry point to Transmit Message 0. Function check
 164:.\Generated_Source\PSoC5/CAN_1_TX_RX_func.c ****     *  if mailbox 0 doesn't already have an un-transmitted messages waiting for
 165:.\Generated_Source\PSoC5/CAN_1_TX_RX_func.c ****     *  arbitration. If not initiate transmission of the message.
 166:.\Generated_Source\PSoC5/CAN_1_TX_RX_func.c ****     *  Only generated for Transmit mailbox designed as Full.
 167:.\Generated_Source\PSoC5/CAN_1_TX_RX_func.c ****     *
 168:.\Generated_Source\PSoC5/CAN_1_TX_RX_func.c ****     * Parameters:
 169:.\Generated_Source\PSoC5/CAN_1_TX_RX_func.c ****     *  None.
 170:.\Generated_Source\PSoC5/CAN_1_TX_RX_func.c ****     *
 171:.\Generated_Source\PSoC5/CAN_1_TX_RX_func.c ****     * Return:
 172:.\Generated_Source\PSoC5/CAN_1_TX_RX_func.c ****     *  Indication if Message has been sent.
 173:.\Generated_Source\PSoC5/CAN_1_TX_RX_func.c ****     *   Define                             Description
 174:.\Generated_Source\PSoC5/CAN_1_TX_RX_func.c ****     *    CYRET_SUCCESS                      Function passed successfully
 175:.\Generated_Source\PSoC5/CAN_1_TX_RX_func.c ****     *    CAN_1_FAIL              Function failed
 176:.\Generated_Source\PSoC5/CAN_1_TX_RX_func.c ****     *
 177:.\Generated_Source\PSoC5/CAN_1_TX_RX_func.c ****     *******************************************************************************/
 178:.\Generated_Source\PSoC5/CAN_1_TX_RX_func.c ****     uint8 CAN_1_SendMsg0(void) 
 179:.\Generated_Source\PSoC5/CAN_1_TX_RX_func.c ****     {
 180:.\Generated_Source\PSoC5/CAN_1_TX_RX_func.c ****         uint8 result = CYRET_SUCCESS;
 181:.\Generated_Source\PSoC5/CAN_1_TX_RX_func.c ****         
 182:.\Generated_Source\PSoC5/CAN_1_TX_RX_func.c ****         if ((CAN_1_TX[0u].txcmd.byte[0u] & CAN_1_TX_REQUEST_PENDING) ==
 183:.\Generated_Source\PSoC5/CAN_1_TX_RX_func.c ****             CAN_1_TX_REQUEST_PENDING)
 184:.\Generated_Source\PSoC5/CAN_1_TX_RX_func.c ****         {
 185:.\Generated_Source\PSoC5/CAN_1_TX_RX_func.c ****             result = CAN_1_FAIL;
ARM GAS  C:\Users\Schuyler\AppData\Local\Temp\ccrY9J4f.s 			page 10


 186:.\Generated_Source\PSoC5/CAN_1_TX_RX_func.c ****         }
 187:.\Generated_Source\PSoC5/CAN_1_TX_RX_func.c ****         else
 188:.\Generated_Source\PSoC5/CAN_1_TX_RX_func.c ****         {
 189:.\Generated_Source\PSoC5/CAN_1_TX_RX_func.c ****             /* `#START MESSAGE_0_TRASMITTED` */
 190:.\Generated_Source\PSoC5/CAN_1_TX_RX_func.c **** 
 191:.\Generated_Source\PSoC5/CAN_1_TX_RX_func.c ****             /* `#END` */
 192:.\Generated_Source\PSoC5/CAN_1_TX_RX_func.c ****             
 193:.\Generated_Source\PSoC5/CAN_1_TX_RX_func.c ****             CY_SET_REG32((reg32 *) &CAN_1_TX[0u].txcmd, CAN_1_SEND_MESSAGE);
 194:.\Generated_Source\PSoC5/CAN_1_TX_RX_func.c ****         }
 195:.\Generated_Source\PSoC5/CAN_1_TX_RX_func.c ****     
 196:.\Generated_Source\PSoC5/CAN_1_TX_RX_func.c ****         return (result);
 197:.\Generated_Source\PSoC5/CAN_1_TX_RX_func.c ****     }    
 198:.\Generated_Source\PSoC5/CAN_1_TX_RX_func.c **** #endif /* CAN_1_TX0_FUNC_ENABLE */
 199:.\Generated_Source\PSoC5/CAN_1_TX_RX_func.c **** 
 200:.\Generated_Source\PSoC5/CAN_1_TX_RX_func.c **** 
 201:.\Generated_Source\PSoC5/CAN_1_TX_RX_func.c **** #if (CAN_1_TX1_FUNC_ENABLE)
 202:.\Generated_Source\PSoC5/CAN_1_TX_RX_func.c ****     /*******************************************************************************
 203:.\Generated_Source\PSoC5/CAN_1_TX_RX_func.c ****     * FUNCTION NAME:   CAN_1_SendMsg1
 204:.\Generated_Source\PSoC5/CAN_1_TX_RX_func.c ****     ********************************************************************************
 205:.\Generated_Source\PSoC5/CAN_1_TX_RX_func.c ****     *
 206:.\Generated_Source\PSoC5/CAN_1_TX_RX_func.c ****     * Summary:
 207:.\Generated_Source\PSoC5/CAN_1_TX_RX_func.c ****     *  This function is entry point to Transmit Message 1. Function check
 208:.\Generated_Source\PSoC5/CAN_1_TX_RX_func.c ****     *  if mailbox 1 doesn't already have an un-transmitted messages waiting for
 209:.\Generated_Source\PSoC5/CAN_1_TX_RX_func.c ****     *  arbitration. If not initiate transmission of the message.
 210:.\Generated_Source\PSoC5/CAN_1_TX_RX_func.c ****     *  Only generated for Transmit mailbox designed as Full.
 211:.\Generated_Source\PSoC5/CAN_1_TX_RX_func.c ****     *
 212:.\Generated_Source\PSoC5/CAN_1_TX_RX_func.c ****     * Parameters:
 213:.\Generated_Source\PSoC5/CAN_1_TX_RX_func.c ****     *  None.
 214:.\Generated_Source\PSoC5/CAN_1_TX_RX_func.c ****     *
 215:.\Generated_Source\PSoC5/CAN_1_TX_RX_func.c ****     * Return:
 216:.\Generated_Source\PSoC5/CAN_1_TX_RX_func.c ****     *  Indication if Message has been sent.
 217:.\Generated_Source\PSoC5/CAN_1_TX_RX_func.c ****     *   Define                             Description
 218:.\Generated_Source\PSoC5/CAN_1_TX_RX_func.c ****     *    CYRET_SUCCESS                      Function passed successfully
 219:.\Generated_Source\PSoC5/CAN_1_TX_RX_func.c ****     *    CAN_1_FAIL              Function failed
 220:.\Generated_Source\PSoC5/CAN_1_TX_RX_func.c ****     *
 221:.\Generated_Source\PSoC5/CAN_1_TX_RX_func.c ****     *******************************************************************************/
 222:.\Generated_Source\PSoC5/CAN_1_TX_RX_func.c ****     uint8 CAN_1_SendMsg1(void) 
 223:.\Generated_Source\PSoC5/CAN_1_TX_RX_func.c ****     {
 224:.\Generated_Source\PSoC5/CAN_1_TX_RX_func.c ****         uint8 result = CYRET_SUCCESS;
 225:.\Generated_Source\PSoC5/CAN_1_TX_RX_func.c ****         
 226:.\Generated_Source\PSoC5/CAN_1_TX_RX_func.c ****         if ((CAN_1_TX[1u].txcmd.byte[0u] & CAN_1_TX_REQUEST_PENDING) ==
 227:.\Generated_Source\PSoC5/CAN_1_TX_RX_func.c ****             CAN_1_TX_REQUEST_PENDING)
 228:.\Generated_Source\PSoC5/CAN_1_TX_RX_func.c ****         {
 229:.\Generated_Source\PSoC5/CAN_1_TX_RX_func.c ****             result = CAN_1_FAIL;
 230:.\Generated_Source\PSoC5/CAN_1_TX_RX_func.c ****         }
 231:.\Generated_Source\PSoC5/CAN_1_TX_RX_func.c ****         else
 232:.\Generated_Source\PSoC5/CAN_1_TX_RX_func.c ****         {
 233:.\Generated_Source\PSoC5/CAN_1_TX_RX_func.c ****             /* `#START MESSAGE_1_TRASMITTED` */
 234:.\Generated_Source\PSoC5/CAN_1_TX_RX_func.c **** 
 235:.\Generated_Source\PSoC5/CAN_1_TX_RX_func.c ****             /* `#END` */
 236:.\Generated_Source\PSoC5/CAN_1_TX_RX_func.c ****             
 237:.\Generated_Source\PSoC5/CAN_1_TX_RX_func.c ****             CY_SET_REG32((reg32 *) & CAN_1_TX[1u].txcmd, CAN_1_SEND_MESSAGE);
 238:.\Generated_Source\PSoC5/CAN_1_TX_RX_func.c ****         }
 239:.\Generated_Source\PSoC5/CAN_1_TX_RX_func.c ****     
 240:.\Generated_Source\PSoC5/CAN_1_TX_RX_func.c ****         return (result);
 241:.\Generated_Source\PSoC5/CAN_1_TX_RX_func.c ****     }    
 242:.\Generated_Source\PSoC5/CAN_1_TX_RX_func.c **** #endif /* CAN_1_TX1_FUNC_ENABLE */
ARM GAS  C:\Users\Schuyler\AppData\Local\Temp\ccrY9J4f.s 			page 11


 243:.\Generated_Source\PSoC5/CAN_1_TX_RX_func.c **** 
 244:.\Generated_Source\PSoC5/CAN_1_TX_RX_func.c **** 
 245:.\Generated_Source\PSoC5/CAN_1_TX_RX_func.c **** #if (CAN_1_TX2_FUNC_ENABLE)
 246:.\Generated_Source\PSoC5/CAN_1_TX_RX_func.c ****     /*******************************************************************************
 247:.\Generated_Source\PSoC5/CAN_1_TX_RX_func.c ****     * FUNCTION NAME:   CAN_1_SendMsg2
 248:.\Generated_Source\PSoC5/CAN_1_TX_RX_func.c ****     ********************************************************************************
 249:.\Generated_Source\PSoC5/CAN_1_TX_RX_func.c ****     *
 250:.\Generated_Source\PSoC5/CAN_1_TX_RX_func.c ****     * Summary:
 251:.\Generated_Source\PSoC5/CAN_1_TX_RX_func.c ****     *  This function is entry point to Transmit Message 2. Function check
 252:.\Generated_Source\PSoC5/CAN_1_TX_RX_func.c ****     *  if mailbox 2 doesn't already have an un-transmitted messages waiting for
 253:.\Generated_Source\PSoC5/CAN_1_TX_RX_func.c ****     *  arbitration. If not initiate transmission of the message.
 254:.\Generated_Source\PSoC5/CAN_1_TX_RX_func.c ****     *  Only generated for Transmit mailbox designed as Full.
 255:.\Generated_Source\PSoC5/CAN_1_TX_RX_func.c ****     *
 256:.\Generated_Source\PSoC5/CAN_1_TX_RX_func.c ****     * Parameters:
 257:.\Generated_Source\PSoC5/CAN_1_TX_RX_func.c ****     *  None.
 258:.\Generated_Source\PSoC5/CAN_1_TX_RX_func.c ****     *
 259:.\Generated_Source\PSoC5/CAN_1_TX_RX_func.c ****     * Return:
 260:.\Generated_Source\PSoC5/CAN_1_TX_RX_func.c ****     *  Indication if Message has been sent.
 261:.\Generated_Source\PSoC5/CAN_1_TX_RX_func.c ****     *   Define                             Description
 262:.\Generated_Source\PSoC5/CAN_1_TX_RX_func.c ****     *    CYRET_SUCCESS                      Function passed successfully
 263:.\Generated_Source\PSoC5/CAN_1_TX_RX_func.c ****     *    CAN_1_FAIL              Function failed
 264:.\Generated_Source\PSoC5/CAN_1_TX_RX_func.c ****     *
 265:.\Generated_Source\PSoC5/CAN_1_TX_RX_func.c ****     *******************************************************************************/
 266:.\Generated_Source\PSoC5/CAN_1_TX_RX_func.c ****     uint8 CAN_1_SendMsg2(void) 
 267:.\Generated_Source\PSoC5/CAN_1_TX_RX_func.c ****     {
 268:.\Generated_Source\PSoC5/CAN_1_TX_RX_func.c ****         uint8 result = CYRET_SUCCESS;
 269:.\Generated_Source\PSoC5/CAN_1_TX_RX_func.c ****         
 270:.\Generated_Source\PSoC5/CAN_1_TX_RX_func.c ****         if ((CAN_1_TX[2u].txcmd.byte[0u] & CAN_1_TX_REQUEST_PENDING) ==
 271:.\Generated_Source\PSoC5/CAN_1_TX_RX_func.c ****             CAN_1_TX_REQUEST_PENDING)
 272:.\Generated_Source\PSoC5/CAN_1_TX_RX_func.c ****         {
 273:.\Generated_Source\PSoC5/CAN_1_TX_RX_func.c ****             result = CAN_1_FAIL;
 274:.\Generated_Source\PSoC5/CAN_1_TX_RX_func.c ****         }
 275:.\Generated_Source\PSoC5/CAN_1_TX_RX_func.c ****         else
 276:.\Generated_Source\PSoC5/CAN_1_TX_RX_func.c ****         {
 277:.\Generated_Source\PSoC5/CAN_1_TX_RX_func.c ****             /* `#START MESSAGE_2_TRASMITTED` */
 278:.\Generated_Source\PSoC5/CAN_1_TX_RX_func.c **** 
 279:.\Generated_Source\PSoC5/CAN_1_TX_RX_func.c ****             /* `#END` */
 280:.\Generated_Source\PSoC5/CAN_1_TX_RX_func.c ****             
 281:.\Generated_Source\PSoC5/CAN_1_TX_RX_func.c ****             CY_SET_REG32((reg32 *) & CAN_1_TX[2u].txcmd, CAN_1_SEND_MESSAGE);
 282:.\Generated_Source\PSoC5/CAN_1_TX_RX_func.c ****         }
 283:.\Generated_Source\PSoC5/CAN_1_TX_RX_func.c ****     
 284:.\Generated_Source\PSoC5/CAN_1_TX_RX_func.c ****         return (result);
 285:.\Generated_Source\PSoC5/CAN_1_TX_RX_func.c ****     }
 286:.\Generated_Source\PSoC5/CAN_1_TX_RX_func.c **** #endif /* CAN_1_TX2_FUNC_ENABLE */
 287:.\Generated_Source\PSoC5/CAN_1_TX_RX_func.c **** 
 288:.\Generated_Source\PSoC5/CAN_1_TX_RX_func.c **** 
 289:.\Generated_Source\PSoC5/CAN_1_TX_RX_func.c **** #if (CAN_1_TX3_FUNC_ENABLE)
 290:.\Generated_Source\PSoC5/CAN_1_TX_RX_func.c ****     /*******************************************************************************
 291:.\Generated_Source\PSoC5/CAN_1_TX_RX_func.c ****     * FUNCTION NAME:   CAN_1_SendMsg3
 292:.\Generated_Source\PSoC5/CAN_1_TX_RX_func.c ****     ********************************************************************************
 293:.\Generated_Source\PSoC5/CAN_1_TX_RX_func.c ****     *
 294:.\Generated_Source\PSoC5/CAN_1_TX_RX_func.c ****     * Summary:
 295:.\Generated_Source\PSoC5/CAN_1_TX_RX_func.c ****     *  This function is entry point to Transmit Message 3. Function check
 296:.\Generated_Source\PSoC5/CAN_1_TX_RX_func.c ****     *  if mailbox 3 doesn't already have an un-transmitted messages waiting for
 297:.\Generated_Source\PSoC5/CAN_1_TX_RX_func.c ****     *  arbitration. If not initiate transmission of the message.
 298:.\Generated_Source\PSoC5/CAN_1_TX_RX_func.c ****     *  Only generated for Transmit mailbox designed as Full.
 299:.\Generated_Source\PSoC5/CAN_1_TX_RX_func.c ****     *
ARM GAS  C:\Users\Schuyler\AppData\Local\Temp\ccrY9J4f.s 			page 12


 300:.\Generated_Source\PSoC5/CAN_1_TX_RX_func.c ****     * Parameters:
 301:.\Generated_Source\PSoC5/CAN_1_TX_RX_func.c ****     *  None.
 302:.\Generated_Source\PSoC5/CAN_1_TX_RX_func.c ****     *
 303:.\Generated_Source\PSoC5/CAN_1_TX_RX_func.c ****     * Return:
 304:.\Generated_Source\PSoC5/CAN_1_TX_RX_func.c ****     *  Indication if Message has been sent.
 305:.\Generated_Source\PSoC5/CAN_1_TX_RX_func.c ****     *   Define                             Description
 306:.\Generated_Source\PSoC5/CAN_1_TX_RX_func.c ****     *    CYRET_SUCCESS                      Function passed successfully
 307:.\Generated_Source\PSoC5/CAN_1_TX_RX_func.c ****     *    CAN_1_FAIL              Function failed
 308:.\Generated_Source\PSoC5/CAN_1_TX_RX_func.c ****     *
 309:.\Generated_Source\PSoC5/CAN_1_TX_RX_func.c ****     *******************************************************************************/
 310:.\Generated_Source\PSoC5/CAN_1_TX_RX_func.c ****     uint8 CAN_1_SendMsg3(void) 
 311:.\Generated_Source\PSoC5/CAN_1_TX_RX_func.c ****     {
 312:.\Generated_Source\PSoC5/CAN_1_TX_RX_func.c ****         uint8 result = CYRET_SUCCESS;
 313:.\Generated_Source\PSoC5/CAN_1_TX_RX_func.c ****         
 314:.\Generated_Source\PSoC5/CAN_1_TX_RX_func.c ****         if ((CAN_1_TX[3u].txcmd.byte[0u] & CAN_1_TX_REQUEST_PENDING) ==
 315:.\Generated_Source\PSoC5/CAN_1_TX_RX_func.c ****             CAN_1_TX_REQUEST_PENDING)
 316:.\Generated_Source\PSoC5/CAN_1_TX_RX_func.c ****         {
 317:.\Generated_Source\PSoC5/CAN_1_TX_RX_func.c ****             result = CAN_1_FAIL;
 318:.\Generated_Source\PSoC5/CAN_1_TX_RX_func.c ****         }
 319:.\Generated_Source\PSoC5/CAN_1_TX_RX_func.c ****         else
 320:.\Generated_Source\PSoC5/CAN_1_TX_RX_func.c ****         {
 321:.\Generated_Source\PSoC5/CAN_1_TX_RX_func.c ****             /* `#START MESSAGE_3_TRASMITTED` */
 322:.\Generated_Source\PSoC5/CAN_1_TX_RX_func.c **** 
 323:.\Generated_Source\PSoC5/CAN_1_TX_RX_func.c ****             /* `#END` */
 324:.\Generated_Source\PSoC5/CAN_1_TX_RX_func.c ****             
 325:.\Generated_Source\PSoC5/CAN_1_TX_RX_func.c ****             CY_SET_REG32((reg32 *) & CAN_1_TX[3u].txcmd, CAN_1_SEND_MESSAGE);
 326:.\Generated_Source\PSoC5/CAN_1_TX_RX_func.c ****         }
 327:.\Generated_Source\PSoC5/CAN_1_TX_RX_func.c ****     
 328:.\Generated_Source\PSoC5/CAN_1_TX_RX_func.c ****         return (result);
 329:.\Generated_Source\PSoC5/CAN_1_TX_RX_func.c ****     }    
 330:.\Generated_Source\PSoC5/CAN_1_TX_RX_func.c **** #endif /* CAN_1_TX3_FUNC_ENABLE */
 331:.\Generated_Source\PSoC5/CAN_1_TX_RX_func.c **** 
 332:.\Generated_Source\PSoC5/CAN_1_TX_RX_func.c **** 
 333:.\Generated_Source\PSoC5/CAN_1_TX_RX_func.c **** #if (CAN_1_TX4_FUNC_ENABLE)
 334:.\Generated_Source\PSoC5/CAN_1_TX_RX_func.c ****     /*******************************************************************************
 335:.\Generated_Source\PSoC5/CAN_1_TX_RX_func.c ****     * FUNCTION NAME:   CAN_1_SendMsg4
 336:.\Generated_Source\PSoC5/CAN_1_TX_RX_func.c ****     ********************************************************************************
 337:.\Generated_Source\PSoC5/CAN_1_TX_RX_func.c ****     *
 338:.\Generated_Source\PSoC5/CAN_1_TX_RX_func.c ****     * Summary:
 339:.\Generated_Source\PSoC5/CAN_1_TX_RX_func.c ****     *  This function is entry point to Transmit Message 4. Function check if mailbox
 340:.\Generated_Source\PSoC5/CAN_1_TX_RX_func.c ****     *  4 doesn't already have an un-transmitted messages waiting for arbitration. 
 341:.\Generated_Source\PSoC5/CAN_1_TX_RX_func.c ****     *  If not initiate transmission of the message. Only generated for Transmit 
 342:.\Generated_Source\PSoC5/CAN_1_TX_RX_func.c ****     *  mailbox designed as Full.
 343:.\Generated_Source\PSoC5/CAN_1_TX_RX_func.c ****     *
 344:.\Generated_Source\PSoC5/CAN_1_TX_RX_func.c ****     * Parameters:
 345:.\Generated_Source\PSoC5/CAN_1_TX_RX_func.c ****     *  None.
 346:.\Generated_Source\PSoC5/CAN_1_TX_RX_func.c ****     *
 347:.\Generated_Source\PSoC5/CAN_1_TX_RX_func.c ****     * Return:
 348:.\Generated_Source\PSoC5/CAN_1_TX_RX_func.c ****     *  Indication if Message has been sent.
 349:.\Generated_Source\PSoC5/CAN_1_TX_RX_func.c ****     *   Define                             Description
 350:.\Generated_Source\PSoC5/CAN_1_TX_RX_func.c ****     *    CYRET_SUCCESS                      Function passed successfully
 351:.\Generated_Source\PSoC5/CAN_1_TX_RX_func.c ****     *    CAN_1_FAIL              Function failed
 352:.\Generated_Source\PSoC5/CAN_1_TX_RX_func.c ****     *
 353:.\Generated_Source\PSoC5/CAN_1_TX_RX_func.c ****     *******************************************************************************/
 354:.\Generated_Source\PSoC5/CAN_1_TX_RX_func.c ****     uint8 CAN_1_SendMsg4(void) 
 355:.\Generated_Source\PSoC5/CAN_1_TX_RX_func.c ****     {
 356:.\Generated_Source\PSoC5/CAN_1_TX_RX_func.c ****         uint8 result = CYRET_SUCCESS;
ARM GAS  C:\Users\Schuyler\AppData\Local\Temp\ccrY9J4f.s 			page 13


 357:.\Generated_Source\PSoC5/CAN_1_TX_RX_func.c ****         
 358:.\Generated_Source\PSoC5/CAN_1_TX_RX_func.c ****         if ((CAN_1_TX[4u].txcmd.byte[0u] & CAN_1_TX_REQUEST_PENDING) ==
 359:.\Generated_Source\PSoC5/CAN_1_TX_RX_func.c ****             CAN_1_TX_REQUEST_PENDING)
 360:.\Generated_Source\PSoC5/CAN_1_TX_RX_func.c ****         {
 361:.\Generated_Source\PSoC5/CAN_1_TX_RX_func.c ****             result = CAN_1_FAIL;
 362:.\Generated_Source\PSoC5/CAN_1_TX_RX_func.c ****         }
 363:.\Generated_Source\PSoC5/CAN_1_TX_RX_func.c ****         else
 364:.\Generated_Source\PSoC5/CAN_1_TX_RX_func.c ****         {
 365:.\Generated_Source\PSoC5/CAN_1_TX_RX_func.c ****             /* `#START MESSAGE_4_TRASMITTED` */
 366:.\Generated_Source\PSoC5/CAN_1_TX_RX_func.c **** 
 367:.\Generated_Source\PSoC5/CAN_1_TX_RX_func.c ****             /* `#END` */
 368:.\Generated_Source\PSoC5/CAN_1_TX_RX_func.c ****             
 369:.\Generated_Source\PSoC5/CAN_1_TX_RX_func.c ****             CY_SET_REG32((reg32 *) & CAN_1_TX[4u].txcmd, CAN_1_SEND_MESSAGE);
 370:.\Generated_Source\PSoC5/CAN_1_TX_RX_func.c ****         }
 371:.\Generated_Source\PSoC5/CAN_1_TX_RX_func.c ****     
 372:.\Generated_Source\PSoC5/CAN_1_TX_RX_func.c ****         return (result);
 373:.\Generated_Source\PSoC5/CAN_1_TX_RX_func.c ****     }    
 374:.\Generated_Source\PSoC5/CAN_1_TX_RX_func.c **** #endif /* CAN_1_TX4_FUNC_ENABLE */
 375:.\Generated_Source\PSoC5/CAN_1_TX_RX_func.c **** 
 376:.\Generated_Source\PSoC5/CAN_1_TX_RX_func.c **** 
 377:.\Generated_Source\PSoC5/CAN_1_TX_RX_func.c **** #if (CAN_1_TX5_FUNC_ENABLE)
 378:.\Generated_Source\PSoC5/CAN_1_TX_RX_func.c ****     /*******************************************************************************
 379:.\Generated_Source\PSoC5/CAN_1_TX_RX_func.c ****     * FUNCTION NAME:   CAN_1_SendMsg5
 380:.\Generated_Source\PSoC5/CAN_1_TX_RX_func.c ****     ********************************************************************************
 381:.\Generated_Source\PSoC5/CAN_1_TX_RX_func.c ****     *
 382:.\Generated_Source\PSoC5/CAN_1_TX_RX_func.c ****     * Summary:
 383:.\Generated_Source\PSoC5/CAN_1_TX_RX_func.c ****     *  This function is entry point to Transmit Message 5. Function check
 384:.\Generated_Source\PSoC5/CAN_1_TX_RX_func.c ****     *  if mailbox 5 doesn't already have an un-transmitted messages waiting for
 385:.\Generated_Source\PSoC5/CAN_1_TX_RX_func.c ****     *  arbitration. If not initiate transmission of the message. Only generated for
 386:.\Generated_Source\PSoC5/CAN_1_TX_RX_func.c ****     *  Transmit mailbox designed as Full.
 387:.\Generated_Source\PSoC5/CAN_1_TX_RX_func.c ****     *
 388:.\Generated_Source\PSoC5/CAN_1_TX_RX_func.c ****     * Parameters:
 389:.\Generated_Source\PSoC5/CAN_1_TX_RX_func.c ****     *  None.
 390:.\Generated_Source\PSoC5/CAN_1_TX_RX_func.c ****     *
 391:.\Generated_Source\PSoC5/CAN_1_TX_RX_func.c ****     * Return:
 392:.\Generated_Source\PSoC5/CAN_1_TX_RX_func.c ****     *  Indication if Message has been sent.
 393:.\Generated_Source\PSoC5/CAN_1_TX_RX_func.c ****     *   Define                             Description
 394:.\Generated_Source\PSoC5/CAN_1_TX_RX_func.c ****     *    CYRET_SUCCESS                      Function passed successfully
 395:.\Generated_Source\PSoC5/CAN_1_TX_RX_func.c ****     *    CAN_1_FAIL              Function failed
 396:.\Generated_Source\PSoC5/CAN_1_TX_RX_func.c ****     *
 397:.\Generated_Source\PSoC5/CAN_1_TX_RX_func.c ****     *******************************************************************************/
 398:.\Generated_Source\PSoC5/CAN_1_TX_RX_func.c ****     uint8 CAN_1_SendMsg5(void) 
 399:.\Generated_Source\PSoC5/CAN_1_TX_RX_func.c ****     {
 400:.\Generated_Source\PSoC5/CAN_1_TX_RX_func.c ****         uint8 result = CYRET_SUCCESS;
 401:.\Generated_Source\PSoC5/CAN_1_TX_RX_func.c ****         
 402:.\Generated_Source\PSoC5/CAN_1_TX_RX_func.c ****         if ((CAN_1_TX[5u].txcmd.byte[0u] & CAN_1_TX_REQUEST_PENDING) ==
 403:.\Generated_Source\PSoC5/CAN_1_TX_RX_func.c ****             CAN_1_TX_REQUEST_PENDING)
 404:.\Generated_Source\PSoC5/CAN_1_TX_RX_func.c ****         {
 405:.\Generated_Source\PSoC5/CAN_1_TX_RX_func.c ****             result = CAN_1_FAIL;
 406:.\Generated_Source\PSoC5/CAN_1_TX_RX_func.c ****         }
 407:.\Generated_Source\PSoC5/CAN_1_TX_RX_func.c ****         else
 408:.\Generated_Source\PSoC5/CAN_1_TX_RX_func.c ****         {
 409:.\Generated_Source\PSoC5/CAN_1_TX_RX_func.c ****             /* `#START MESSAGE_5_TRASMITTED` */
 410:.\Generated_Source\PSoC5/CAN_1_TX_RX_func.c **** 
 411:.\Generated_Source\PSoC5/CAN_1_TX_RX_func.c ****             /* `#END` */
 412:.\Generated_Source\PSoC5/CAN_1_TX_RX_func.c ****             
 413:.\Generated_Source\PSoC5/CAN_1_TX_RX_func.c ****             CY_SET_REG32((reg32 *) & CAN_1_TX[5u].txcmd, CAN_1_SEND_MESSAGE);
ARM GAS  C:\Users\Schuyler\AppData\Local\Temp\ccrY9J4f.s 			page 14


 414:.\Generated_Source\PSoC5/CAN_1_TX_RX_func.c ****         }
 415:.\Generated_Source\PSoC5/CAN_1_TX_RX_func.c ****     
 416:.\Generated_Source\PSoC5/CAN_1_TX_RX_func.c ****         return (result);
 417:.\Generated_Source\PSoC5/CAN_1_TX_RX_func.c ****     }    
 418:.\Generated_Source\PSoC5/CAN_1_TX_RX_func.c **** #endif /* CAN_1_TX5_FUNC_ENABLE */
 419:.\Generated_Source\PSoC5/CAN_1_TX_RX_func.c **** 
 420:.\Generated_Source\PSoC5/CAN_1_TX_RX_func.c **** 
 421:.\Generated_Source\PSoC5/CAN_1_TX_RX_func.c **** #if (CAN_1_TX6_FUNC_ENABLE)
 422:.\Generated_Source\PSoC5/CAN_1_TX_RX_func.c ****     /*******************************************************************************
 423:.\Generated_Source\PSoC5/CAN_1_TX_RX_func.c ****     * FUNCTION NAME:   CAN_1_SendMsg6
 424:.\Generated_Source\PSoC5/CAN_1_TX_RX_func.c ****     ********************************************************************************
 425:.\Generated_Source\PSoC5/CAN_1_TX_RX_func.c ****     *
 426:.\Generated_Source\PSoC5/CAN_1_TX_RX_func.c ****     * Summary:
 427:.\Generated_Source\PSoC5/CAN_1_TX_RX_func.c ****     *  This function is entry point to Transmit Message 6. Function check
 428:.\Generated_Source\PSoC5/CAN_1_TX_RX_func.c ****     *  if mailbox 6 doesn't already have an un-transmitted messages waiting for
 429:.\Generated_Source\PSoC5/CAN_1_TX_RX_func.c ****     *  arbitration. If not initiate transmission of the message. Only generated for
 430:.\Generated_Source\PSoC5/CAN_1_TX_RX_func.c ****     *  Transmit mailbox designed as Full.
 431:.\Generated_Source\PSoC5/CAN_1_TX_RX_func.c ****     *
 432:.\Generated_Source\PSoC5/CAN_1_TX_RX_func.c ****     * Parameters:
 433:.\Generated_Source\PSoC5/CAN_1_TX_RX_func.c ****     *  None.
 434:.\Generated_Source\PSoC5/CAN_1_TX_RX_func.c ****     *
 435:.\Generated_Source\PSoC5/CAN_1_TX_RX_func.c ****     * Return:
 436:.\Generated_Source\PSoC5/CAN_1_TX_RX_func.c ****     *  Indication if Message has been sent.
 437:.\Generated_Source\PSoC5/CAN_1_TX_RX_func.c ****     *   Define                             Description
 438:.\Generated_Source\PSoC5/CAN_1_TX_RX_func.c ****     *    CYRET_SUCCESS                      Function passed successfully
 439:.\Generated_Source\PSoC5/CAN_1_TX_RX_func.c ****     *    CAN_1_FAIL              Function failed
 440:.\Generated_Source\PSoC5/CAN_1_TX_RX_func.c ****     *
 441:.\Generated_Source\PSoC5/CAN_1_TX_RX_func.c ****     *******************************************************************************/
 442:.\Generated_Source\PSoC5/CAN_1_TX_RX_func.c ****     uint8 CAN_1_SendMsg6(void) 
 443:.\Generated_Source\PSoC5/CAN_1_TX_RX_func.c ****     {
 444:.\Generated_Source\PSoC5/CAN_1_TX_RX_func.c ****         uint8 result = CYRET_SUCCESS;
 445:.\Generated_Source\PSoC5/CAN_1_TX_RX_func.c ****         
 446:.\Generated_Source\PSoC5/CAN_1_TX_RX_func.c ****         if ((CAN_1_TX[6u].txcmd.byte[0u] & CAN_1_TX_REQUEST_PENDING) ==
 447:.\Generated_Source\PSoC5/CAN_1_TX_RX_func.c ****             CAN_1_TX_REQUEST_PENDING)
 448:.\Generated_Source\PSoC5/CAN_1_TX_RX_func.c ****         {
 449:.\Generated_Source\PSoC5/CAN_1_TX_RX_func.c ****             result = CAN_1_FAIL;
 450:.\Generated_Source\PSoC5/CAN_1_TX_RX_func.c ****         }
 451:.\Generated_Source\PSoC5/CAN_1_TX_RX_func.c ****         else
 452:.\Generated_Source\PSoC5/CAN_1_TX_RX_func.c ****         {
 453:.\Generated_Source\PSoC5/CAN_1_TX_RX_func.c ****             /* `#START MESSAGE_6_TRASMITTED` */
 454:.\Generated_Source\PSoC5/CAN_1_TX_RX_func.c **** 
 455:.\Generated_Source\PSoC5/CAN_1_TX_RX_func.c ****             /* `#END` */
 456:.\Generated_Source\PSoC5/CAN_1_TX_RX_func.c ****             
 457:.\Generated_Source\PSoC5/CAN_1_TX_RX_func.c ****             CY_SET_REG32((reg32 *) & CAN_1_TX[6u].txcmd, CAN_1_SEND_MESSAGE);
 458:.\Generated_Source\PSoC5/CAN_1_TX_RX_func.c ****         }
 459:.\Generated_Source\PSoC5/CAN_1_TX_RX_func.c ****     
 460:.\Generated_Source\PSoC5/CAN_1_TX_RX_func.c ****         return (result);
 461:.\Generated_Source\PSoC5/CAN_1_TX_RX_func.c ****     }    
 462:.\Generated_Source\PSoC5/CAN_1_TX_RX_func.c **** #endif /* CAN_1_TX6_FUNC_ENABLE */
 463:.\Generated_Source\PSoC5/CAN_1_TX_RX_func.c **** 
 464:.\Generated_Source\PSoC5/CAN_1_TX_RX_func.c **** 
 465:.\Generated_Source\PSoC5/CAN_1_TX_RX_func.c **** #if (CAN_1_TX7_FUNC_ENABLE)
 466:.\Generated_Source\PSoC5/CAN_1_TX_RX_func.c ****     /*******************************************************************************
 467:.\Generated_Source\PSoC5/CAN_1_TX_RX_func.c ****     * FUNCTION NAME:   CAN_1_SendMsg7)
 468:.\Generated_Source\PSoC5/CAN_1_TX_RX_func.c ****     ********************************************************************************
 469:.\Generated_Source\PSoC5/CAN_1_TX_RX_func.c ****     *
 470:.\Generated_Source\PSoC5/CAN_1_TX_RX_func.c ****     * Summary:
ARM GAS  C:\Users\Schuyler\AppData\Local\Temp\ccrY9J4f.s 			page 15


 471:.\Generated_Source\PSoC5/CAN_1_TX_RX_func.c ****     *  This function is entry point to Transmit Message 7. Function check
 472:.\Generated_Source\PSoC5/CAN_1_TX_RX_func.c ****     *  if mailbox 7 doesn't already have an un-transmitted messages waiting for
 473:.\Generated_Source\PSoC5/CAN_1_TX_RX_func.c ****     *  arbitration. If not initiate transmission of the message. Only generated for
 474:.\Generated_Source\PSoC5/CAN_1_TX_RX_func.c ****     *  Transmit mailbox designed as Full.
 475:.\Generated_Source\PSoC5/CAN_1_TX_RX_func.c ****     *
 476:.\Generated_Source\PSoC5/CAN_1_TX_RX_func.c ****     * Parameters:
 477:.\Generated_Source\PSoC5/CAN_1_TX_RX_func.c ****     *  None.
 478:.\Generated_Source\PSoC5/CAN_1_TX_RX_func.c ****     *
 479:.\Generated_Source\PSoC5/CAN_1_TX_RX_func.c ****     * Return:
 480:.\Generated_Source\PSoC5/CAN_1_TX_RX_func.c ****     *  Indication if Message has been sent.
 481:.\Generated_Source\PSoC5/CAN_1_TX_RX_func.c ****     *   Define                             Description
 482:.\Generated_Source\PSoC5/CAN_1_TX_RX_func.c ****     *    CYRET_SUCCESS                      Function passed successfully
 483:.\Generated_Source\PSoC5/CAN_1_TX_RX_func.c ****     *    CAN_1_FAIL              Function failed
 484:.\Generated_Source\PSoC5/CAN_1_TX_RX_func.c ****     *
 485:.\Generated_Source\PSoC5/CAN_1_TX_RX_func.c ****     *******************************************************************************/
 486:.\Generated_Source\PSoC5/CAN_1_TX_RX_func.c ****     uint8 CAN_1_SendMsg7(void) 
 487:.\Generated_Source\PSoC5/CAN_1_TX_RX_func.c ****     {
 488:.\Generated_Source\PSoC5/CAN_1_TX_RX_func.c ****         uint8 result = CYRET_SUCCESS;
 489:.\Generated_Source\PSoC5/CAN_1_TX_RX_func.c ****         
 490:.\Generated_Source\PSoC5/CAN_1_TX_RX_func.c ****         if ((CAN_1_TX[7u].txcmd.byte[0u] & CAN_1_TX_REQUEST_PENDING) ==
 491:.\Generated_Source\PSoC5/CAN_1_TX_RX_func.c ****             CAN_1_TX_REQUEST_PENDING)
 492:.\Generated_Source\PSoC5/CAN_1_TX_RX_func.c ****         {
 493:.\Generated_Source\PSoC5/CAN_1_TX_RX_func.c ****             result = CAN_1_FAIL;
 494:.\Generated_Source\PSoC5/CAN_1_TX_RX_func.c ****         }
 495:.\Generated_Source\PSoC5/CAN_1_TX_RX_func.c ****         else
 496:.\Generated_Source\PSoC5/CAN_1_TX_RX_func.c ****         {
 497:.\Generated_Source\PSoC5/CAN_1_TX_RX_func.c ****             /* `#START MESSAGE_7_TRASMITTED` */
 498:.\Generated_Source\PSoC5/CAN_1_TX_RX_func.c **** 
 499:.\Generated_Source\PSoC5/CAN_1_TX_RX_func.c ****             /* `#END` */
 500:.\Generated_Source\PSoC5/CAN_1_TX_RX_func.c ****             
 501:.\Generated_Source\PSoC5/CAN_1_TX_RX_func.c ****             CY_SET_REG32((reg32 *) & CAN_1_TX[7u].txcmd, CAN_1_SEND_MESSAGE);
 502:.\Generated_Source\PSoC5/CAN_1_TX_RX_func.c ****         }
 503:.\Generated_Source\PSoC5/CAN_1_TX_RX_func.c ****     
 504:.\Generated_Source\PSoC5/CAN_1_TX_RX_func.c ****         return (result);
 505:.\Generated_Source\PSoC5/CAN_1_TX_RX_func.c ****     }    
 506:.\Generated_Source\PSoC5/CAN_1_TX_RX_func.c **** #endif /* CAN_1_TX7_FUNC_ENABLE */
 507:.\Generated_Source\PSoC5/CAN_1_TX_RX_func.c **** 
 508:.\Generated_Source\PSoC5/CAN_1_TX_RX_func.c **** 
 509:.\Generated_Source\PSoC5/CAN_1_TX_RX_func.c **** /*******************************************************************************
 510:.\Generated_Source\PSoC5/CAN_1_TX_RX_func.c **** * FUNCTION NAME:   CAN_1_ReceiveMsg
 511:.\Generated_Source\PSoC5/CAN_1_TX_RX_func.c **** ********************************************************************************
 512:.\Generated_Source\PSoC5/CAN_1_TX_RX_func.c **** *
 513:.\Generated_Source\PSoC5/CAN_1_TX_RX_func.c **** * Summary:
 514:.\Generated_Source\PSoC5/CAN_1_TX_RX_func.c **** *  This function is entry point to Receive Message Interrupt for Basic 
 515:.\Generated_Source\PSoC5/CAN_1_TX_RX_func.c **** *  mailboxes. Clears Receive particular Message interrupt flag. Only generated 
 516:.\Generated_Source\PSoC5/CAN_1_TX_RX_func.c **** *  if one of Receive mailboxes designed as Basic.
 517:.\Generated_Source\PSoC5/CAN_1_TX_RX_func.c **** *
 518:.\Generated_Source\PSoC5/CAN_1_TX_RX_func.c **** * Parameters:
 519:.\Generated_Source\PSoC5/CAN_1_TX_RX_func.c **** *  rxMailbox: Mailbox number that trig Receive Message Interrupt.
 520:.\Generated_Source\PSoC5/CAN_1_TX_RX_func.c **** *
 521:.\Generated_Source\PSoC5/CAN_1_TX_RX_func.c **** * Return:
 522:.\Generated_Source\PSoC5/CAN_1_TX_RX_func.c **** *  None.
 523:.\Generated_Source\PSoC5/CAN_1_TX_RX_func.c **** *
 524:.\Generated_Source\PSoC5/CAN_1_TX_RX_func.c **** * Reentrant:
 525:.\Generated_Source\PSoC5/CAN_1_TX_RX_func.c **** *  Depends on Customer code.
 526:.\Generated_Source\PSoC5/CAN_1_TX_RX_func.c **** *
 527:.\Generated_Source\PSoC5/CAN_1_TX_RX_func.c **** *******************************************************************************/
ARM GAS  C:\Users\Schuyler\AppData\Local\Temp\ccrY9J4f.s 			page 16


 528:.\Generated_Source\PSoC5/CAN_1_TX_RX_func.c **** void CAN_1_ReceiveMsg(uint8 rxMailbox) 
 529:.\Generated_Source\PSoC5/CAN_1_TX_RX_func.c **** {
 323              		.loc 1 529 0
 324              		.cfi_startproc
 325              		@ args = 0, pretend = 0, frame = 8
 326              		@ frame_needed = 1, uses_anonymous_args = 0
 327              		@ link register save eliminated.
 328 0000 80B4     		push	{r7}
 329              		.cfi_def_cfa_offset 4
 330              		.cfi_offset 7, -4
 331 0002 83B0     		sub	sp, sp, #12
 332              		.cfi_def_cfa_offset 16
 333 0004 00AF     		add	r7, sp, #0
 334              		.cfi_def_cfa_register 7
 335 0006 0346     		mov	r3, r0
 336 0008 FB71     		strb	r3, [r7, #7]
 530:.\Generated_Source\PSoC5/CAN_1_TX_RX_func.c ****     if ((CAN_1_RX[rxMailbox].rxcmd.byte[0u] & CAN_1_RX_ACK_MSG) == CAN_1_RX_ACK_MSG)
 337              		.loc 1 530 0
 338 000a FB79     		ldrb	r3, [r7, #7]	@ zero_extendqisi2
 339 000c 5A01     		lsls	r2, r3, #5
 340 000e 0D4B     		ldr	r3, .L30
 341 0010 1344     		add	r3, r3, r2
 342 0012 1B78     		ldrb	r3, [r3]
 343 0014 DBB2     		uxtb	r3, r3
 344 0016 03F00103 		and	r3, r3, #1
 345 001a 002B     		cmp	r3, #0
 346 001c 0DD0     		beq	.L28
 531:.\Generated_Source\PSoC5/CAN_1_TX_RX_func.c ****     {
 532:.\Generated_Source\PSoC5/CAN_1_TX_RX_func.c ****         /* `#START MESSAGE_BASIC_RECEIVED` */
 533:.\Generated_Source\PSoC5/CAN_1_TX_RX_func.c **** 
 534:.\Generated_Source\PSoC5/CAN_1_TX_RX_func.c ****         /* `#END` */
 535:.\Generated_Source\PSoC5/CAN_1_TX_RX_func.c ****         
 536:.\Generated_Source\PSoC5/CAN_1_TX_RX_func.c ****         CAN_1_RX[rxMailbox].rxcmd.byte[0u] |= CAN_1_RX_ACK_MSG;
 347              		.loc 1 536 0
 348 001e FB79     		ldrb	r3, [r7, #7]	@ zero_extendqisi2
 349 0020 5A01     		lsls	r2, r3, #5
 350 0022 084B     		ldr	r3, .L30
 351 0024 1344     		add	r3, r3, r2
 352 0026 FA79     		ldrb	r2, [r7, #7]	@ zero_extendqisi2
 353 0028 5101     		lsls	r1, r2, #5
 354 002a 064A     		ldr	r2, .L30
 355 002c 0A44     		add	r2, r2, r1
 356 002e 1278     		ldrb	r2, [r2]
 357 0030 D2B2     		uxtb	r2, r2
 358 0032 42F00102 		orr	r2, r2, #1
 359 0036 D2B2     		uxtb	r2, r2
 360 0038 1A70     		strb	r2, [r3]
 361              	.L28:
 537:.\Generated_Source\PSoC5/CAN_1_TX_RX_func.c ****     }
 538:.\Generated_Source\PSoC5/CAN_1_TX_RX_func.c **** }
 362              		.loc 1 538 0
 363 003a 0C37     		adds	r7, r7, #12
 364 003c BD46     		mov	sp, r7
 365              		@ sp needed
 366 003e 5DF8047B 		ldr	r7, [sp], #4
 367 0042 7047     		bx	lr
 368              	.L31:
ARM GAS  C:\Users\Schuyler\AppData\Local\Temp\ccrY9J4f.s 			page 17


 369              		.align	2
 370              	.L30:
 371 0044 A0A00040 		.word	1073782944
 372              		.cfi_endproc
 373              	.LFE2:
 374              		.size	CAN_1_ReceiveMsg, .-CAN_1_ReceiveMsg
 375              		.section	.text.CAN_1_ReceiveMsg0,"ax",%progbits
 376              		.align	2
 377              		.global	CAN_1_ReceiveMsg0
 378              		.thumb
 379              		.thumb_func
 380              		.type	CAN_1_ReceiveMsg0, %function
 381              	CAN_1_ReceiveMsg0:
 382              	.LFB3:
 539:.\Generated_Source\PSoC5/CAN_1_TX_RX_func.c **** 
 540:.\Generated_Source\PSoC5/CAN_1_TX_RX_func.c **** 
 541:.\Generated_Source\PSoC5/CAN_1_TX_RX_func.c **** #if (CAN_1_RX0_FUNC_ENABLE)
 542:.\Generated_Source\PSoC5/CAN_1_TX_RX_func.c ****     /*******************************************************************************
 543:.\Generated_Source\PSoC5/CAN_1_TX_RX_func.c ****     * FUNCTION NAME:   CAN_1_ReceiveMsg0
 544:.\Generated_Source\PSoC5/CAN_1_TX_RX_func.c ****     ********************************************************************************
 545:.\Generated_Source\PSoC5/CAN_1_TX_RX_func.c ****     *
 546:.\Generated_Source\PSoC5/CAN_1_TX_RX_func.c ****     * Summary:
 547:.\Generated_Source\PSoC5/CAN_1_TX_RX_func.c ****     *  This function is entry point to Receive Message 0 Interrupt. Clears Receive
 548:.\Generated_Source\PSoC5/CAN_1_TX_RX_func.c ****     *  Message 0 interrupt flag. Only generated for Receive mailbox designed as 
 549:.\Generated_Source\PSoC5/CAN_1_TX_RX_func.c ****     *  Full.
 550:.\Generated_Source\PSoC5/CAN_1_TX_RX_func.c ****     *
 551:.\Generated_Source\PSoC5/CAN_1_TX_RX_func.c ****     * Parameters:
 552:.\Generated_Source\PSoC5/CAN_1_TX_RX_func.c ****     *  None.
 553:.\Generated_Source\PSoC5/CAN_1_TX_RX_func.c ****     *
 554:.\Generated_Source\PSoC5/CAN_1_TX_RX_func.c ****     * Return:
 555:.\Generated_Source\PSoC5/CAN_1_TX_RX_func.c ****     *  None.
 556:.\Generated_Source\PSoC5/CAN_1_TX_RX_func.c ****     *
 557:.\Generated_Source\PSoC5/CAN_1_TX_RX_func.c ****     * Reentrant:
 558:.\Generated_Source\PSoC5/CAN_1_TX_RX_func.c ****     *  Depends on Customer code.
 559:.\Generated_Source\PSoC5/CAN_1_TX_RX_func.c ****     *
 560:.\Generated_Source\PSoC5/CAN_1_TX_RX_func.c ****     *******************************************************************************/
 561:.\Generated_Source\PSoC5/CAN_1_TX_RX_func.c ****     void CAN_1_ReceiveMsg0(void) 
 562:.\Generated_Source\PSoC5/CAN_1_TX_RX_func.c ****     {
 383              		.loc 1 562 0
 384              		.cfi_startproc
 385              		@ args = 0, pretend = 0, frame = 0
 386              		@ frame_needed = 1, uses_anonymous_args = 0
 387 0000 80B5     		push	{r7, lr}
 388              		.cfi_def_cfa_offset 8
 389              		.cfi_offset 7, -8
 390              		.cfi_offset 14, -4
 391 0002 00AF     		add	r7, sp, #0
 392              		.cfi_def_cfa_register 7
 563:.\Generated_Source\PSoC5/CAN_1_TX_RX_func.c ****         /* `#START MESSAGE_0_RECEIVED` */
 564:.\Generated_Source\PSoC5/CAN_1_TX_RX_func.c ****             Rx_Data = CAN_1_RX_DATA_BYTE1(0);
 393              		.loc 1 564 0
 394 0004 0B4B     		ldr	r3, .L33
 395 0006 DB7A     		ldrb	r3, [r3, #11]
 396 0008 DAB2     		uxtb	r2, r3
 397 000a 0B4B     		ldr	r3, .L33+4
 398 000c 1A70     		strb	r2, [r3]
 565:.\Generated_Source\PSoC5/CAN_1_TX_RX_func.c ****             GREEN_Write(1);
ARM GAS  C:\Users\Schuyler\AppData\Local\Temp\ccrY9J4f.s 			page 18


 399              		.loc 1 565 0
 400 000e 0120     		movs	r0, #1
 401 0010 FFF7FEFF 		bl	GREEN_Write
 566:.\Generated_Source\PSoC5/CAN_1_TX_RX_func.c ****             CyDelay(200);
 402              		.loc 1 566 0
 403 0014 C820     		movs	r0, #200
 404 0016 FFF7FEFF 		bl	CyDelay
 567:.\Generated_Source\PSoC5/CAN_1_TX_RX_func.c ****             GREEN_Write(0);
 405              		.loc 1 567 0
 406 001a 0020     		movs	r0, #0
 407 001c FFF7FEFF 		bl	GREEN_Write
 568:.\Generated_Source\PSoC5/CAN_1_TX_RX_func.c ****         /* `#END` */
 569:.\Generated_Source\PSoC5/CAN_1_TX_RX_func.c ****     
 570:.\Generated_Source\PSoC5/CAN_1_TX_RX_func.c ****         CAN_1_RX[0u].rxcmd.byte[0u] |= CAN_1_RX_ACK_MSG;
 408              		.loc 1 570 0
 409 0020 044B     		ldr	r3, .L33
 410 0022 044A     		ldr	r2, .L33
 411 0024 1278     		ldrb	r2, [r2]
 412 0026 D2B2     		uxtb	r2, r2
 413 0028 42F00102 		orr	r2, r2, #1
 414 002c D2B2     		uxtb	r2, r2
 415 002e 1A70     		strb	r2, [r3]
 571:.\Generated_Source\PSoC5/CAN_1_TX_RX_func.c **** 
 572:.\Generated_Source\PSoC5/CAN_1_TX_RX_func.c ****     }
 416              		.loc 1 572 0
 417 0030 80BD     		pop	{r7, pc}
 418              	.L34:
 419 0032 00BF     		.align	2
 420              	.L33:
 421 0034 A0A00040 		.word	1073782944
 422 0038 00000000 		.word	Rx_Data
 423              		.cfi_endproc
 424              	.LFE3:
 425              		.size	CAN_1_ReceiveMsg0, .-CAN_1_ReceiveMsg0
 426              		.section	.text.CAN_1_ReceiveMsg1,"ax",%progbits
 427              		.align	2
 428              		.global	CAN_1_ReceiveMsg1
 429              		.thumb
 430              		.thumb_func
 431              		.type	CAN_1_ReceiveMsg1, %function
 432              	CAN_1_ReceiveMsg1:
 433              	.LFB4:
 573:.\Generated_Source\PSoC5/CAN_1_TX_RX_func.c **** #endif /* CAN_1_RX0_FUNC_ENABLE */
 574:.\Generated_Source\PSoC5/CAN_1_TX_RX_func.c **** 
 575:.\Generated_Source\PSoC5/CAN_1_TX_RX_func.c **** 
 576:.\Generated_Source\PSoC5/CAN_1_TX_RX_func.c **** #if (CAN_1_RX1_FUNC_ENABLE)
 577:.\Generated_Source\PSoC5/CAN_1_TX_RX_func.c ****     /*******************************************************************************
 578:.\Generated_Source\PSoC5/CAN_1_TX_RX_func.c ****     * FUNCTION NAME:    CAN_1_ReceiveMsg1
 579:.\Generated_Source\PSoC5/CAN_1_TX_RX_func.c ****     ********************************************************************************
 580:.\Generated_Source\PSoC5/CAN_1_TX_RX_func.c ****     *
 581:.\Generated_Source\PSoC5/CAN_1_TX_RX_func.c ****     * Summary:
 582:.\Generated_Source\PSoC5/CAN_1_TX_RX_func.c ****     *  This function is entry point to Receive Message 1 Interrupt. Clears Receive
 583:.\Generated_Source\PSoC5/CAN_1_TX_RX_func.c ****     *  Message 1 interrupt flag. Only generated for Receive mailbox designed as 
 584:.\Generated_Source\PSoC5/CAN_1_TX_RX_func.c ****     *  Full.
 585:.\Generated_Source\PSoC5/CAN_1_TX_RX_func.c ****     *
 586:.\Generated_Source\PSoC5/CAN_1_TX_RX_func.c ****     * Parameters:
 587:.\Generated_Source\PSoC5/CAN_1_TX_RX_func.c ****     *  None.
ARM GAS  C:\Users\Schuyler\AppData\Local\Temp\ccrY9J4f.s 			page 19


 588:.\Generated_Source\PSoC5/CAN_1_TX_RX_func.c ****     *
 589:.\Generated_Source\PSoC5/CAN_1_TX_RX_func.c ****     * Return:
 590:.\Generated_Source\PSoC5/CAN_1_TX_RX_func.c ****     *  None.
 591:.\Generated_Source\PSoC5/CAN_1_TX_RX_func.c ****     *
 592:.\Generated_Source\PSoC5/CAN_1_TX_RX_func.c ****     * Reentrant:
 593:.\Generated_Source\PSoC5/CAN_1_TX_RX_func.c ****     *  Depends on Customer code.
 594:.\Generated_Source\PSoC5/CAN_1_TX_RX_func.c ****     *
 595:.\Generated_Source\PSoC5/CAN_1_TX_RX_func.c ****     *******************************************************************************/
 596:.\Generated_Source\PSoC5/CAN_1_TX_RX_func.c ****     void CAN_1_ReceiveMsg1(void) 
 597:.\Generated_Source\PSoC5/CAN_1_TX_RX_func.c ****     {
 434              		.loc 1 597 0
 435              		.cfi_startproc
 436              		@ args = 0, pretend = 0, frame = 0
 437              		@ frame_needed = 1, uses_anonymous_args = 0
 438 0000 80B5     		push	{r7, lr}
 439              		.cfi_def_cfa_offset 8
 440              		.cfi_offset 7, -8
 441              		.cfi_offset 14, -4
 442 0002 00AF     		add	r7, sp, #0
 443              		.cfi_def_cfa_register 7
 598:.\Generated_Source\PSoC5/CAN_1_TX_RX_func.c ****         /* `#START MESSAGE_1_RECEIVED` */
 599:.\Generated_Source\PSoC5/CAN_1_TX_RX_func.c ****         
 600:.\Generated_Source\PSoC5/CAN_1_TX_RX_func.c ****             Rx_Data = CAN_1_RX_DATA_BYTE1(0);
 444              		.loc 1 600 0
 445 0004 0B4B     		ldr	r3, .L36
 446 0006 DB7A     		ldrb	r3, [r3, #11]
 447 0008 DAB2     		uxtb	r2, r3
 448 000a 0B4B     		ldr	r3, .L36+4
 449 000c 1A70     		strb	r2, [r3]
 601:.\Generated_Source\PSoC5/CAN_1_TX_RX_func.c ****             RED_Write(1);
 450              		.loc 1 601 0
 451 000e 0120     		movs	r0, #1
 452 0010 FFF7FEFF 		bl	RED_Write
 602:.\Generated_Source\PSoC5/CAN_1_TX_RX_func.c ****             CyDelay(200);
 453              		.loc 1 602 0
 454 0014 C820     		movs	r0, #200
 455 0016 FFF7FEFF 		bl	CyDelay
 603:.\Generated_Source\PSoC5/CAN_1_TX_RX_func.c ****             RED_Write(0);
 456              		.loc 1 603 0
 457 001a 0020     		movs	r0, #0
 458 001c FFF7FEFF 		bl	RED_Write
 604:.\Generated_Source\PSoC5/CAN_1_TX_RX_func.c **** 
 605:.\Generated_Source\PSoC5/CAN_1_TX_RX_func.c ****         /* `#END` */
 606:.\Generated_Source\PSoC5/CAN_1_TX_RX_func.c ****     
 607:.\Generated_Source\PSoC5/CAN_1_TX_RX_func.c ****         CAN_1_RX[1u].rxcmd.byte[0u] |= CAN_1_RX_ACK_MSG;
 459              		.loc 1 607 0
 460 0020 064B     		ldr	r3, .L36+8
 461 0022 064A     		ldr	r2, .L36+8
 462 0024 1278     		ldrb	r2, [r2]
 463 0026 D2B2     		uxtb	r2, r2
 464 0028 42F00102 		orr	r2, r2, #1
 465 002c D2B2     		uxtb	r2, r2
 466 002e 1A70     		strb	r2, [r3]
 608:.\Generated_Source\PSoC5/CAN_1_TX_RX_func.c **** 
 609:.\Generated_Source\PSoC5/CAN_1_TX_RX_func.c ****     }    
 467              		.loc 1 609 0
 468 0030 80BD     		pop	{r7, pc}
ARM GAS  C:\Users\Schuyler\AppData\Local\Temp\ccrY9J4f.s 			page 20


 469              	.L37:
 470 0032 00BF     		.align	2
 471              	.L36:
 472 0034 A0A00040 		.word	1073782944
 473 0038 00000000 		.word	Rx_Data
 474 003c C0A00040 		.word	1073782976
 475              		.cfi_endproc
 476              	.LFE4:
 477              		.size	CAN_1_ReceiveMsg1, .-CAN_1_ReceiveMsg1
 478              		.text
 479              	.Letext0:
 480              		.file 2 ".\\Generated_Source\\PSoC5\\cytypes.h"
 481              		.file 3 ".\\Generated_Source\\PSoC5\\CAN_1.h"