ARM GAS  C:\Users\Schuyler\AppData\Local\Temp\ccI6WHHk.s 			page 1


   1              		.syntax unified
   2              		.cpu cortex-m3
   3              		.fpu softvfp
   4              		.eabi_attribute 20, 1
   5              		.eabi_attribute 21, 1
   6              		.eabi_attribute 23, 3
   7              		.eabi_attribute 24, 1
   8              		.eabi_attribute 25, 1
   9              		.eabi_attribute 26, 1
  10              		.eabi_attribute 30, 6
  11              		.eabi_attribute 34, 1
  12              		.eabi_attribute 18, 4
  13              		.thumb
  14              		.file	"CAN_1_TX_RX_func.c"
  15              		.text
  16              	.Ltext0:
  17              		.cfi_sections	.debug_frame
  18              		.section	.text.CAN_1_SendMsg,"ax",%progbits
  19              		.align	2
  20              		.global	CAN_1_SendMsg
  21              		.thumb
  22              		.thumb_func
  23              		.type	CAN_1_SendMsg, %function
  24              	CAN_1_SendMsg:
  25              	.LFB0:
  26              		.file 1 ".\\Generated_Source\\PSoC5\\CAN_1_TX_RX_func.c"
   1:.\Generated_Source\PSoC5/CAN_1_TX_RX_func.c **** /*******************************************************************************
   2:.\Generated_Source\PSoC5/CAN_1_TX_RX_func.c **** * File Name: CAN_1_TX_RX_func.c
   3:.\Generated_Source\PSoC5/CAN_1_TX_RX_func.c **** * Version 2.30
   4:.\Generated_Source\PSoC5/CAN_1_TX_RX_func.c **** *
   5:.\Generated_Source\PSoC5/CAN_1_TX_RX_func.c **** * Description:
   6:.\Generated_Source\PSoC5/CAN_1_TX_RX_func.c **** *  There are fucntions process "Full" Receive and Transmit mailboxes:
   7:.\Generated_Source\PSoC5/CAN_1_TX_RX_func.c **** *     - CAN_1_SendMsg0-7();
   8:.\Generated_Source\PSoC5/CAN_1_TX_RX_func.c **** *     - CAN_1_ReceiveMsg0-15();
   9:.\Generated_Source\PSoC5/CAN_1_TX_RX_func.c **** *  Transmition of message, and receive routine for "Basic" mailboxes:
  10:.\Generated_Source\PSoC5/CAN_1_TX_RX_func.c **** *     - CAN_1_SendMsg();
  11:.\Generated_Source\PSoC5/CAN_1_TX_RX_func.c **** *     - CAN_1_TxCancel();
  12:.\Generated_Source\PSoC5/CAN_1_TX_RX_func.c **** *     - CAN_1_ReceiveMsg();
  13:.\Generated_Source\PSoC5/CAN_1_TX_RX_func.c **** *
  14:.\Generated_Source\PSoC5/CAN_1_TX_RX_func.c **** *  Note:
  15:.\Generated_Source\PSoC5/CAN_1_TX_RX_func.c **** *   None
  16:.\Generated_Source\PSoC5/CAN_1_TX_RX_func.c **** *
  17:.\Generated_Source\PSoC5/CAN_1_TX_RX_func.c **** ********************************************************************************
  18:.\Generated_Source\PSoC5/CAN_1_TX_RX_func.c **** * Copyright 2008-2012, Cypress Semiconductor Corporation.  All rights reserved.
  19:.\Generated_Source\PSoC5/CAN_1_TX_RX_func.c **** * You may use this file only in accordance with the license, terms, conditions,
  20:.\Generated_Source\PSoC5/CAN_1_TX_RX_func.c **** * disclaimers, and limitations in the end user license agreement accompanying
  21:.\Generated_Source\PSoC5/CAN_1_TX_RX_func.c **** * the software package with which this file was provided.
  22:.\Generated_Source\PSoC5/CAN_1_TX_RX_func.c **** *******************************************************************************/
  23:.\Generated_Source\PSoC5/CAN_1_TX_RX_func.c **** 
  24:.\Generated_Source\PSoC5/CAN_1_TX_RX_func.c **** #include "CAN_1.h"
  25:.\Generated_Source\PSoC5/CAN_1_TX_RX_func.c **** 
  26:.\Generated_Source\PSoC5/CAN_1_TX_RX_func.c **** /* `#START TX_RX_FUNCTION` */
  27:.\Generated_Source\PSoC5/CAN_1_TX_RX_func.c **** extern uint8 Tx_Data;
  28:.\Generated_Source\PSoC5/CAN_1_TX_RX_func.c **** /* `#END` */
  29:.\Generated_Source\PSoC5/CAN_1_TX_RX_func.c **** 
  30:.\Generated_Source\PSoC5/CAN_1_TX_RX_func.c **** 
  31:.\Generated_Source\PSoC5/CAN_1_TX_RX_func.c **** /*******************************************************************************
ARM GAS  C:\Users\Schuyler\AppData\Local\Temp\ccI6WHHk.s 			page 2


  32:.\Generated_Source\PSoC5/CAN_1_TX_RX_func.c **** * FUNCTION NAME:   CAN_1_SendMsg
  33:.\Generated_Source\PSoC5/CAN_1_TX_RX_func.c **** ********************************************************************************
  34:.\Generated_Source\PSoC5/CAN_1_TX_RX_func.c **** *
  35:.\Generated_Source\PSoC5/CAN_1_TX_RX_func.c **** * Summary:
  36:.\Generated_Source\PSoC5/CAN_1_TX_RX_func.c **** *  This function Send Message from one of Basic mailboxes. Function loop through
  37:.\Generated_Source\PSoC5/CAN_1_TX_RX_func.c **** *  the transmit message buffer designed as Basic CAN mailboxes for first free
  38:.\Generated_Source\PSoC5/CAN_1_TX_RX_func.c **** *  available and send from it. The number of retries is limited.
  39:.\Generated_Source\PSoC5/CAN_1_TX_RX_func.c **** *
  40:.\Generated_Source\PSoC5/CAN_1_TX_RX_func.c **** * Parameters:
  41:.\Generated_Source\PSoC5/CAN_1_TX_RX_func.c **** *  message: Pointer to structure that contain all required data to send message.
  42:.\Generated_Source\PSoC5/CAN_1_TX_RX_func.c **** *
  43:.\Generated_Source\PSoC5/CAN_1_TX_RX_func.c **** * Return:
  44:.\Generated_Source\PSoC5/CAN_1_TX_RX_func.c **** *  Indication if message has been sent.
  45:.\Generated_Source\PSoC5/CAN_1_TX_RX_func.c **** *   Define                             Description
  46:.\Generated_Source\PSoC5/CAN_1_TX_RX_func.c **** *    CYRET_SUCCESS                      Function passed successfully
  47:.\Generated_Source\PSoC5/CAN_1_TX_RX_func.c **** *    CAN_1_FAIL              Function failed
  48:.\Generated_Source\PSoC5/CAN_1_TX_RX_func.c **** *
  49:.\Generated_Source\PSoC5/CAN_1_TX_RX_func.c **** *******************************************************************************/
  50:.\Generated_Source\PSoC5/CAN_1_TX_RX_func.c **** uint8 CAN_1_SendMsg(const CAN_1_TX_MSG *message) 
  51:.\Generated_Source\PSoC5/CAN_1_TX_RX_func.c **** {
  27              		.loc 1 51 0
  28              		.cfi_startproc
  29              		@ args = 0, pretend = 0, frame = 24
  30              		@ frame_needed = 1, uses_anonymous_args = 0
  31              		@ link register save eliminated.
  32 0000 80B4     		push	{r7}
  33              		.cfi_def_cfa_offset 4
  34              		.cfi_offset 7, -4
  35 0002 87B0     		sub	sp, sp, #28
  36              		.cfi_def_cfa_offset 32
  37 0004 00AF     		add	r7, sp, #0
  38              		.cfi_def_cfa_register 7
  39 0006 7860     		str	r0, [r7, #4]
  52:.\Generated_Source\PSoC5/CAN_1_TX_RX_func.c ****     uint8 i, j, shift;
  53:.\Generated_Source\PSoC5/CAN_1_TX_RX_func.c ****     uint8 retry = 0u;
  40              		.loc 1 53 0
  41 0008 0023     		movs	r3, #0
  42 000a 3B75     		strb	r3, [r7, #20]
  54:.\Generated_Source\PSoC5/CAN_1_TX_RX_func.c ****     uint8 result = CAN_1_FAIL;
  43              		.loc 1 54 0
  44 000c 0123     		movs	r3, #1
  45 000e FB74     		strb	r3, [r7, #19]
  55:.\Generated_Source\PSoC5/CAN_1_TX_RX_func.c ****     uint32 regTemp;
  56:.\Generated_Source\PSoC5/CAN_1_TX_RX_func.c **** 
  57:.\Generated_Source\PSoC5/CAN_1_TX_RX_func.c ****     while (retry < CAN_1_RETRY_NUMBER)
  46              		.loc 1 57 0
  47 0010 98E0     		b	.L2
  48              	.L20:
  58:.\Generated_Source\PSoC5/CAN_1_TX_RX_func.c ****     {
  59:.\Generated_Source\PSoC5/CAN_1_TX_RX_func.c ****         shift = 1u;
  49              		.loc 1 59 0
  50 0012 0123     		movs	r3, #1
  51 0014 7B75     		strb	r3, [r7, #21]
  60:.\Generated_Source\PSoC5/CAN_1_TX_RX_func.c ****         for (i = 0u; i < CAN_1_NUMBER_OF_TX_MAILBOXES; i++)
  52              		.loc 1 60 0
  53 0016 0023     		movs	r3, #0
  54 0018 FB75     		strb	r3, [r7, #23]
ARM GAS  C:\Users\Schuyler\AppData\Local\Temp\ccI6WHHk.s 			page 3


  55 001a 88E0     		b	.L3
  56              	.L17:
  61:.\Generated_Source\PSoC5/CAN_1_TX_RX_func.c ****         {
  62:.\Generated_Source\PSoC5/CAN_1_TX_RX_func.c ****             /* Find Basic TX mailboxes */
  63:.\Generated_Source\PSoC5/CAN_1_TX_RX_func.c ****             if ((CAN_1_TX_MAILBOX_TYPE & shift) == 0u)
  57              		.loc 1 63 0
  58 001c 7B7D     		ldrb	r3, [r7, #21]
  59 001e 03F00303 		and	r3, r3, #3
  60 0022 DBB2     		uxtb	r3, r3
  61 0024 002B     		cmp	r3, #0
  62 0026 78D1     		bne	.L4
  64:.\Generated_Source\PSoC5/CAN_1_TX_RX_func.c ****             {
  65:.\Generated_Source\PSoC5/CAN_1_TX_RX_func.c ****                 /* Find free mailbox */
  66:.\Generated_Source\PSoC5/CAN_1_TX_RX_func.c ****                 if ((CAN_1_BUF_SR_REG.byte[2] & shift) == 0u)
  63              		.loc 1 66 0
  64 0028 4C4B     		ldr	r3, .L22
  65 002a 9B78     		ldrb	r3, [r3, #2]
  66 002c DAB2     		uxtb	r2, r3
  67 002e 7B7D     		ldrb	r3, [r7, #21]
  68 0030 1340     		ands	r3, r3, r2
  69 0032 DBB2     		uxtb	r3, r3
  70 0034 002B     		cmp	r3, #0
  71 0036 70D1     		bne	.L4
  67:.\Generated_Source\PSoC5/CAN_1_TX_RX_func.c ****                 {
  68:.\Generated_Source\PSoC5/CAN_1_TX_RX_func.c ****                     regTemp = 0u;
  72              		.loc 1 68 0
  73 0038 0023     		movs	r3, #0
  74 003a FB60     		str	r3, [r7, #12]
  69:.\Generated_Source\PSoC5/CAN_1_TX_RX_func.c **** 
  70:.\Generated_Source\PSoC5/CAN_1_TX_RX_func.c ****                     /* Set message parameters */                   
  71:.\Generated_Source\PSoC5/CAN_1_TX_RX_func.c ****                     if ((message->ide) == CAN_1_STANDARD_MESSAGE)
  75              		.loc 1 71 0
  76 003c 7B68     		ldr	r3, [r7, #4]
  77 003e 5B79     		ldrb	r3, [r3, #5]	@ zero_extendqisi2
  78 0040 002B     		cmp	r3, #0
  79 0042 09D1     		bne	.L5
  72:.\Generated_Source\PSoC5/CAN_1_TX_RX_func.c ****                     {
  73:.\Generated_Source\PSoC5/CAN_1_TX_RX_func.c ****                         CAN_1_SET_TX_ID_STANDARD_MSG(i, message->id);                        
  80              		.loc 1 73 0
  81 0044 FB7D     		ldrb	r3, [r7, #23]	@ zero_extendqisi2
  82 0046 1A01     		lsls	r2, r3, #4
  83 0048 454B     		ldr	r3, .L22+4
  84 004a 1344     		add	r3, r3, r2
  85 004c 0433     		adds	r3, r3, #4
  86 004e 7A68     		ldr	r2, [r7, #4]
  87 0050 1268     		ldr	r2, [r2]
  88 0052 5205     		lsls	r2, r2, #21
  89 0054 1A60     		str	r2, [r3]
  90 0056 0BE0     		b	.L6
  91              	.L5:
  74:.\Generated_Source\PSoC5/CAN_1_TX_RX_func.c ****                     }
  75:.\Generated_Source\PSoC5/CAN_1_TX_RX_func.c ****                     else
  76:.\Generated_Source\PSoC5/CAN_1_TX_RX_func.c ****                     {
  77:.\Generated_Source\PSoC5/CAN_1_TX_RX_func.c ****                         regTemp = CAN_1_TX_IDE_MASK;
  92              		.loc 1 77 0
  93 0058 4FF48013 		mov	r3, #1048576
  94 005c FB60     		str	r3, [r7, #12]
ARM GAS  C:\Users\Schuyler\AppData\Local\Temp\ccI6WHHk.s 			page 4


  78:.\Generated_Source\PSoC5/CAN_1_TX_RX_func.c ****                         CAN_1_SET_TX_ID_EXTENDED_MSG(i, message->id);
  95              		.loc 1 78 0
  96 005e FB7D     		ldrb	r3, [r7, #23]	@ zero_extendqisi2
  97 0060 1A01     		lsls	r2, r3, #4
  98 0062 3F4B     		ldr	r3, .L22+4
  99 0064 1344     		add	r3, r3, r2
 100 0066 0433     		adds	r3, r3, #4
 101 0068 7A68     		ldr	r2, [r7, #4]
 102 006a 1268     		ldr	r2, [r2]
 103 006c D200     		lsls	r2, r2, #3
 104 006e 1A60     		str	r2, [r3]
 105              	.L6:
  79:.\Generated_Source\PSoC5/CAN_1_TX_RX_func.c ****                     }
  80:.\Generated_Source\PSoC5/CAN_1_TX_RX_func.c ****                     if (message->dlc < CAN_1_TX_DLC_MAX_VALUE)
 106              		.loc 1 80 0
 107 0070 7B68     		ldr	r3, [r7, #4]
 108 0072 9B79     		ldrb	r3, [r3, #6]	@ zero_extendqisi2
 109 0074 072B     		cmp	r3, #7
 110 0076 06D8     		bhi	.L7
  81:.\Generated_Source\PSoC5/CAN_1_TX_RX_func.c ****                     {
  82:.\Generated_Source\PSoC5/CAN_1_TX_RX_func.c ****                         regTemp |= ((uint32) message->dlc) << CAN_1_TWO_BYTE_OFFSET;
 111              		.loc 1 82 0
 112 0078 7B68     		ldr	r3, [r7, #4]
 113 007a 9B79     		ldrb	r3, [r3, #6]	@ zero_extendqisi2
 114 007c 1B04     		lsls	r3, r3, #16
 115 007e FA68     		ldr	r2, [r7, #12]
 116 0080 1343     		orrs	r3, r3, r2
 117 0082 FB60     		str	r3, [r7, #12]
 118 0084 03E0     		b	.L8
 119              	.L7:
  83:.\Generated_Source\PSoC5/CAN_1_TX_RX_func.c ****                     }
  84:.\Generated_Source\PSoC5/CAN_1_TX_RX_func.c ****                     else
  85:.\Generated_Source\PSoC5/CAN_1_TX_RX_func.c ****                     {
  86:.\Generated_Source\PSoC5/CAN_1_TX_RX_func.c ****                         regTemp |= CAN_1_TX_DLC_UPPER_VALUE;
 120              		.loc 1 86 0
 121 0086 FB68     		ldr	r3, [r7, #12]
 122 0088 43F40023 		orr	r3, r3, #524288
 123 008c FB60     		str	r3, [r7, #12]
 124              	.L8:
  87:.\Generated_Source\PSoC5/CAN_1_TX_RX_func.c ****                     }
  88:.\Generated_Source\PSoC5/CAN_1_TX_RX_func.c ****                     if ((message->irq) != CAN_1_TRANSMIT_INT_DISABLE)
 125              		.loc 1 88 0
 126 008e 7B68     		ldr	r3, [r7, #4]
 127 0090 DB79     		ldrb	r3, [r3, #7]	@ zero_extendqisi2
 128 0092 002B     		cmp	r3, #0
 129 0094 03D0     		beq	.L9
  89:.\Generated_Source\PSoC5/CAN_1_TX_RX_func.c ****                     {
  90:.\Generated_Source\PSoC5/CAN_1_TX_RX_func.c ****                         regTemp |= CAN_1_TX_INT_ENABLE_MASK;    /* Transmit Interrupt Enable */
 130              		.loc 1 90 0
 131 0096 FB68     		ldr	r3, [r7, #12]
 132 0098 43F00403 		orr	r3, r3, #4
 133 009c FB60     		str	r3, [r7, #12]
 134              	.L9:
  91:.\Generated_Source\PSoC5/CAN_1_TX_RX_func.c ****                     }
  92:.\Generated_Source\PSoC5/CAN_1_TX_RX_func.c **** 
  93:.\Generated_Source\PSoC5/CAN_1_TX_RX_func.c ****                     for (j = 0u; (j < message->dlc) && (j < CAN_1_TX_DLC_MAX_VALUE); j++)
 135              		.loc 1 93 0
ARM GAS  C:\Users\Schuyler\AppData\Local\Temp\ccI6WHHk.s 			page 5


 136 009e 0023     		movs	r3, #0
 137 00a0 BB75     		strb	r3, [r7, #22]
 138 00a2 17E0     		b	.L10
 139              	.L14:
  94:.\Generated_Source\PSoC5/CAN_1_TX_RX_func.c ****                     {
  95:.\Generated_Source\PSoC5/CAN_1_TX_RX_func.c ****                         CAN_1_TX_DATA_BYTE(i, j) = message->msg->byte[j];
 140              		.loc 1 95 0
 141 00a4 FB7D     		ldrb	r3, [r7, #23]	@ zero_extendqisi2
 142 00a6 1A01     		lsls	r2, r3, #4
 143 00a8 2D4B     		ldr	r3, .L22+4
 144 00aa 1344     		add	r3, r3, r2
 145 00ac BA7D     		ldrb	r2, [r7, #22]	@ zero_extendqisi2
 146 00ae 032A     		cmp	r2, #3
 147 00b0 03D9     		bls	.L11
 148              		.loc 1 95 0 is_stmt 0 discriminator 1
 149 00b2 BA7D     		ldrb	r2, [r7, #22]	@ zero_extendqisi2
 150 00b4 C2F10B02 		rsb	r2, r2, #11
 151 00b8 02E0     		b	.L12
 152              	.L11:
 153              		.loc 1 95 0 discriminator 2
 154 00ba BA7D     		ldrb	r2, [r7, #22]	@ zero_extendqisi2
 155 00bc C2F10302 		rsb	r2, r2, #3
 156              	.L12:
 157              		.loc 1 95 0 discriminator 3
 158 00c0 7968     		ldr	r1, [r7, #4]
 159 00c2 8868     		ldr	r0, [r1, #8]
 160 00c4 B97D     		ldrb	r1, [r7, #22]	@ zero_extendqisi2
 161 00c6 415C     		ldrb	r1, [r0, r1]	@ zero_extendqisi2
 162 00c8 1344     		add	r3, r3, r2
 163 00ca 0A46     		mov	r2, r1
 164 00cc 1A72     		strb	r2, [r3, #8]
  93:.\Generated_Source\PSoC5/CAN_1_TX_RX_func.c ****                     for (j = 0u; (j < message->dlc) && (j < CAN_1_TX_DLC_MAX_VALUE); j++)
 165              		.loc 1 93 0 is_stmt 1 discriminator 3
 166 00ce BB7D     		ldrb	r3, [r7, #22]	@ zero_extendqisi2
 167 00d0 0133     		adds	r3, r3, #1
 168 00d2 BB75     		strb	r3, [r7, #22]
 169              	.L10:
  93:.\Generated_Source\PSoC5/CAN_1_TX_RX_func.c ****                     for (j = 0u; (j < message->dlc) && (j < CAN_1_TX_DLC_MAX_VALUE); j++)
 170              		.loc 1 93 0 is_stmt 0 discriminator 1
 171 00d4 7B68     		ldr	r3, [r7, #4]
 172 00d6 9B79     		ldrb	r3, [r3, #6]	@ zero_extendqisi2
 173 00d8 BA7D     		ldrb	r2, [r7, #22]	@ zero_extendqisi2
 174 00da 9A42     		cmp	r2, r3
 175 00dc 02D2     		bcs	.L13
  93:.\Generated_Source\PSoC5/CAN_1_TX_RX_func.c ****                     for (j = 0u; (j < message->dlc) && (j < CAN_1_TX_DLC_MAX_VALUE); j++)
 176              		.loc 1 93 0 discriminator 2
 177 00de BB7D     		ldrb	r3, [r7, #22]	@ zero_extendqisi2
 178 00e0 072B     		cmp	r3, #7
 179 00e2 DFD9     		bls	.L14
 180              	.L13:
  96:.\Generated_Source\PSoC5/CAN_1_TX_RX_func.c ****                     }
  97:.\Generated_Source\PSoC5/CAN_1_TX_RX_func.c ****                     
  98:.\Generated_Source\PSoC5/CAN_1_TX_RX_func.c ****     /* Disable isr */
  99:.\Generated_Source\PSoC5/CAN_1_TX_RX_func.c ****     CyIntDisable(CAN_1_ISR_NUMBER);
 181              		.loc 1 99 0 is_stmt 1
 182 00e4 1F4B     		ldr	r3, .L22+8
 183 00e6 4FF48032 		mov	r2, #65536
ARM GAS  C:\Users\Schuyler\AppData\Local\Temp\ccI6WHHk.s 			page 6


 184 00ea 1A60     		str	r2, [r3]
 100:.\Generated_Source\PSoC5/CAN_1_TX_RX_func.c **** 
 101:.\Generated_Source\PSoC5/CAN_1_TX_RX_func.c ****                     /* WPN[23] and WPN[3] set to 1 for write to CAN Control reg */
 102:.\Generated_Source\PSoC5/CAN_1_TX_RX_func.c ****                     CY_SET_REG32((reg32 *) &CAN_1_TX[i].txcmd, (regTemp | CAN_1_TX_WPN_SET));
 185              		.loc 1 102 0
 186 00ec FB7D     		ldrb	r3, [r7, #23]	@ zero_extendqisi2
 187 00ee 1A01     		lsls	r2, r3, #4
 188 00f0 1B4B     		ldr	r3, .L22+4
 189 00f2 1344     		add	r3, r3, r2
 190 00f4 1A46     		mov	r2, r3
 191 00f6 FB68     		ldr	r3, [r7, #12]
 192 00f8 43F40003 		orr	r3, r3, #8388608
 193 00fc 43F00803 		orr	r3, r3, #8
 194 0100 1360     		str	r3, [r2]
 103:.\Generated_Source\PSoC5/CAN_1_TX_RX_func.c ****                     CY_SET_REG32((reg32 *) &CAN_1_TX[i].txcmd, CAN_1_SEND_MESSAGE);
 195              		.loc 1 103 0
 196 0102 FB7D     		ldrb	r3, [r7, #23]	@ zero_extendqisi2
 197 0104 1A01     		lsls	r2, r3, #4
 198 0106 164B     		ldr	r3, .L22+4
 199 0108 1344     		add	r3, r3, r2
 200 010a 0122     		movs	r2, #1
 201 010c 1A60     		str	r2, [r3]
 104:.\Generated_Source\PSoC5/CAN_1_TX_RX_func.c ****                     
 105:.\Generated_Source\PSoC5/CAN_1_TX_RX_func.c ****     /* Enable isr */
 106:.\Generated_Source\PSoC5/CAN_1_TX_RX_func.c ****     CyIntEnable(CAN_1_ISR_NUMBER);
 202              		.loc 1 106 0
 203 010e 164B     		ldr	r3, .L22+12
 204 0110 4FF48032 		mov	r2, #65536
 205 0114 1A60     		str	r2, [r3]
 107:.\Generated_Source\PSoC5/CAN_1_TX_RX_func.c **** 
 108:.\Generated_Source\PSoC5/CAN_1_TX_RX_func.c ****                     result = CYRET_SUCCESS;
 206              		.loc 1 108 0
 207 0116 0023     		movs	r3, #0
 208 0118 FB74     		strb	r3, [r7, #19]
 209              	.L4:
 109:.\Generated_Source\PSoC5/CAN_1_TX_RX_func.c ****                 }
 110:.\Generated_Source\PSoC5/CAN_1_TX_RX_func.c ****             }
 111:.\Generated_Source\PSoC5/CAN_1_TX_RX_func.c ****             shift <<= 1u;
 210              		.loc 1 111 0
 211 011a 7B7D     		ldrb	r3, [r7, #21]
 212 011c 5B00     		lsls	r3, r3, #1
 213 011e 7B75     		strb	r3, [r7, #21]
 112:.\Generated_Source\PSoC5/CAN_1_TX_RX_func.c ****             if (result == CYRET_SUCCESS)
 214              		.loc 1 112 0
 215 0120 FB7C     		ldrb	r3, [r7, #19]	@ zero_extendqisi2
 216 0122 002B     		cmp	r3, #0
 217 0124 00D1     		bne	.L15
 113:.\Generated_Source\PSoC5/CAN_1_TX_RX_func.c ****             {
 114:.\Generated_Source\PSoC5/CAN_1_TX_RX_func.c ****                 break;
 218              		.loc 1 114 0
 219 0126 06E0     		b	.L16
 220              	.L15:
  60:.\Generated_Source\PSoC5/CAN_1_TX_RX_func.c ****         for (i = 0u; i < CAN_1_NUMBER_OF_TX_MAILBOXES; i++)
 221              		.loc 1 60 0
 222 0128 FB7D     		ldrb	r3, [r7, #23]	@ zero_extendqisi2
 223 012a 0133     		adds	r3, r3, #1
 224 012c FB75     		strb	r3, [r7, #23]
ARM GAS  C:\Users\Schuyler\AppData\Local\Temp\ccI6WHHk.s 			page 7


 225              	.L3:
  60:.\Generated_Source\PSoC5/CAN_1_TX_RX_func.c ****         for (i = 0u; i < CAN_1_NUMBER_OF_TX_MAILBOXES; i++)
 226              		.loc 1 60 0 is_stmt 0 discriminator 1
 227 012e FB7D     		ldrb	r3, [r7, #23]	@ zero_extendqisi2
 228 0130 072B     		cmp	r3, #7
 229 0132 7FF673AF 		bls	.L17
 230              	.L16:
 115:.\Generated_Source\PSoC5/CAN_1_TX_RX_func.c ****             }
 116:.\Generated_Source\PSoC5/CAN_1_TX_RX_func.c ****         }
 117:.\Generated_Source\PSoC5/CAN_1_TX_RX_func.c ****         if (result == CYRET_SUCCESS)
 231              		.loc 1 117 0 is_stmt 1
 232 0136 FB7C     		ldrb	r3, [r7, #19]	@ zero_extendqisi2
 233 0138 002B     		cmp	r3, #0
 234 013a 00D1     		bne	.L18
 118:.\Generated_Source\PSoC5/CAN_1_TX_RX_func.c ****         {
 119:.\Generated_Source\PSoC5/CAN_1_TX_RX_func.c ****             break;
 235              		.loc 1 119 0
 236 013c 06E0     		b	.L19
 237              	.L18:
 120:.\Generated_Source\PSoC5/CAN_1_TX_RX_func.c ****         }
 121:.\Generated_Source\PSoC5/CAN_1_TX_RX_func.c ****         else
 122:.\Generated_Source\PSoC5/CAN_1_TX_RX_func.c ****         {
 123:.\Generated_Source\PSoC5/CAN_1_TX_RX_func.c ****             retry++;
 238              		.loc 1 123 0
 239 013e 3B7D     		ldrb	r3, [r7, #20]	@ zero_extendqisi2
 240 0140 0133     		adds	r3, r3, #1
 241 0142 3B75     		strb	r3, [r7, #20]
 242              	.L2:
  57:.\Generated_Source\PSoC5/CAN_1_TX_RX_func.c ****     while (retry < CAN_1_RETRY_NUMBER)
 243              		.loc 1 57 0 discriminator 1
 244 0144 3B7D     		ldrb	r3, [r7, #20]	@ zero_extendqisi2
 245 0146 022B     		cmp	r3, #2
 246 0148 7FF663AF 		bls	.L20
 247              	.L19:
 124:.\Generated_Source\PSoC5/CAN_1_TX_RX_func.c ****         }
 125:.\Generated_Source\PSoC5/CAN_1_TX_RX_func.c ****     }
 126:.\Generated_Source\PSoC5/CAN_1_TX_RX_func.c **** 
 127:.\Generated_Source\PSoC5/CAN_1_TX_RX_func.c ****     return (result);
 248              		.loc 1 127 0
 249 014c FB7C     		ldrb	r3, [r7, #19]	@ zero_extendqisi2
 128:.\Generated_Source\PSoC5/CAN_1_TX_RX_func.c **** }
 250              		.loc 1 128 0
 251 014e 1846     		mov	r0, r3
 252 0150 1C37     		adds	r7, r7, #28
 253 0152 BD46     		mov	sp, r7
 254              		@ sp needed
 255 0154 5DF8047B 		ldr	r7, [sp], #4
 256 0158 7047     		bx	lr
 257              	.L23:
 258 015a 00BF     		.align	2
 259              	.L22:
 260 015c 08A00040 		.word	1073782792
 261 0160 20A00040 		.word	1073782816
 262 0164 80E100E0 		.word	-536813184
 263 0168 00E100E0 		.word	-536813312
 264              		.cfi_endproc
 265              	.LFE0:
ARM GAS  C:\Users\Schuyler\AppData\Local\Temp\ccI6WHHk.s 			page 8


 266              		.size	CAN_1_SendMsg, .-CAN_1_SendMsg
 267              		.section	.text.CAN_1_TxCancel,"ax",%progbits
 268              		.align	2
 269              		.global	CAN_1_TxCancel
 270              		.thumb
 271              		.thumb_func
 272              		.type	CAN_1_TxCancel, %function
 273              	CAN_1_TxCancel:
 274              	.LFB1:
 129:.\Generated_Source\PSoC5/CAN_1_TX_RX_func.c **** 
 130:.\Generated_Source\PSoC5/CAN_1_TX_RX_func.c **** 
 131:.\Generated_Source\PSoC5/CAN_1_TX_RX_func.c **** /*******************************************************************************
 132:.\Generated_Source\PSoC5/CAN_1_TX_RX_func.c **** * FUNCTION NAME:   CAN_1_TxCancel
 133:.\Generated_Source\PSoC5/CAN_1_TX_RX_func.c **** ********************************************************************************
 134:.\Generated_Source\PSoC5/CAN_1_TX_RX_func.c **** *
 135:.\Generated_Source\PSoC5/CAN_1_TX_RX_func.c **** * Summary:
 136:.\Generated_Source\PSoC5/CAN_1_TX_RX_func.c **** *  This function cancel transmission of a message that has been queued for
 137:.\Generated_Source\PSoC5/CAN_1_TX_RX_func.c **** *  transmitted. Values between 0 and 15 are valid.
 138:.\Generated_Source\PSoC5/CAN_1_TX_RX_func.c **** *
 139:.\Generated_Source\PSoC5/CAN_1_TX_RX_func.c **** * Parameters:
 140:.\Generated_Source\PSoC5/CAN_1_TX_RX_func.c **** *  bufferId: Mailbox number.
 141:.\Generated_Source\PSoC5/CAN_1_TX_RX_func.c **** *
 142:.\Generated_Source\PSoC5/CAN_1_TX_RX_func.c **** * Return:
 143:.\Generated_Source\PSoC5/CAN_1_TX_RX_func.c **** *  None.
 144:.\Generated_Source\PSoC5/CAN_1_TX_RX_func.c **** *
 145:.\Generated_Source\PSoC5/CAN_1_TX_RX_func.c **** *******************************************************************************/
 146:.\Generated_Source\PSoC5/CAN_1_TX_RX_func.c **** void CAN_1_TxCancel(uint8 bufferId) 
 147:.\Generated_Source\PSoC5/CAN_1_TX_RX_func.c **** {
 275              		.loc 1 147 0
 276              		.cfi_startproc
 277              		@ args = 0, pretend = 0, frame = 8
 278              		@ frame_needed = 1, uses_anonymous_args = 0
 279              		@ link register save eliminated.
 280 0000 80B4     		push	{r7}
 281              		.cfi_def_cfa_offset 4
 282              		.cfi_offset 7, -4
 283 0002 83B0     		sub	sp, sp, #12
 284              		.cfi_def_cfa_offset 16
 285 0004 00AF     		add	r7, sp, #0
 286              		.cfi_def_cfa_register 7
 287 0006 0346     		mov	r3, r0
 288 0008 FB71     		strb	r3, [r7, #7]
 148:.\Generated_Source\PSoC5/CAN_1_TX_RX_func.c ****     if (bufferId < CAN_1_NUMBER_OF_TX_MAILBOXES)
 289              		.loc 1 148 0
 290 000a FB79     		ldrb	r3, [r7, #7]	@ zero_extendqisi2
 291 000c 072B     		cmp	r3, #7
 292 000e 0DD8     		bhi	.L24
 149:.\Generated_Source\PSoC5/CAN_1_TX_RX_func.c ****     {
 150:.\Generated_Source\PSoC5/CAN_1_TX_RX_func.c ****         CAN_1_TX_ABORT_MESSAGE(bufferId);
 293              		.loc 1 150 0
 294 0010 FB79     		ldrb	r3, [r7, #7]	@ zero_extendqisi2
 295 0012 1A01     		lsls	r2, r3, #4
 296 0014 084B     		ldr	r3, .L26
 297 0016 1344     		add	r3, r3, r2
 298 0018 FA79     		ldrb	r2, [r7, #7]	@ zero_extendqisi2
 299 001a 1101     		lsls	r1, r2, #4
 300 001c 064A     		ldr	r2, .L26
ARM GAS  C:\Users\Schuyler\AppData\Local\Temp\ccI6WHHk.s 			page 9


 301 001e 0A44     		add	r2, r2, r1
 302 0020 1278     		ldrb	r2, [r2]
 303 0022 D2B2     		uxtb	r2, r2
 304 0024 42F00202 		orr	r2, r2, #2
 305 0028 D2B2     		uxtb	r2, r2
 306 002a 1A70     		strb	r2, [r3]
 307              	.L24:
 151:.\Generated_Source\PSoC5/CAN_1_TX_RX_func.c ****     }
 152:.\Generated_Source\PSoC5/CAN_1_TX_RX_func.c **** }
 308              		.loc 1 152 0
 309 002c 0C37     		adds	r7, r7, #12
 310 002e BD46     		mov	sp, r7
 311              		@ sp needed
 312 0030 5DF8047B 		ldr	r7, [sp], #4
 313 0034 7047     		bx	lr
 314              	.L27:
 315 0036 00BF     		.align	2
 316              	.L26:
 317 0038 20A00040 		.word	1073782816
 318              		.cfi_endproc
 319              	.LFE1:
 320              		.size	CAN_1_TxCancel, .-CAN_1_TxCancel
 321              		.section	.text.CAN_1_SendMsg0,"ax",%progbits
 322              		.align	2
 323              		.global	CAN_1_SendMsg0
 324              		.thumb
 325              		.thumb_func
 326              		.type	CAN_1_SendMsg0, %function
 327              	CAN_1_SendMsg0:
 328              	.LFB2:
 153:.\Generated_Source\PSoC5/CAN_1_TX_RX_func.c **** 
 154:.\Generated_Source\PSoC5/CAN_1_TX_RX_func.c **** 
 155:.\Generated_Source\PSoC5/CAN_1_TX_RX_func.c **** #if (CAN_1_TX0_FUNC_ENABLE)
 156:.\Generated_Source\PSoC5/CAN_1_TX_RX_func.c ****     /*******************************************************************************
 157:.\Generated_Source\PSoC5/CAN_1_TX_RX_func.c ****     * FUNCTION NAME:   CAN_1_SendMsg0
 158:.\Generated_Source\PSoC5/CAN_1_TX_RX_func.c ****     ********************************************************************************
 159:.\Generated_Source\PSoC5/CAN_1_TX_RX_func.c ****     *
 160:.\Generated_Source\PSoC5/CAN_1_TX_RX_func.c ****     * Summary:
 161:.\Generated_Source\PSoC5/CAN_1_TX_RX_func.c ****     *  This function is entry point to Transmit Message 0. Function check
 162:.\Generated_Source\PSoC5/CAN_1_TX_RX_func.c ****     *  if mailbox 0 doesn't already have an un-transmitted messages waiting for
 163:.\Generated_Source\PSoC5/CAN_1_TX_RX_func.c ****     *  arbitration. If not initiate transmission of the message.
 164:.\Generated_Source\PSoC5/CAN_1_TX_RX_func.c ****     *  Only generated for Transmit mailbox designed as Full.
 165:.\Generated_Source\PSoC5/CAN_1_TX_RX_func.c ****     *
 166:.\Generated_Source\PSoC5/CAN_1_TX_RX_func.c ****     * Parameters:
 167:.\Generated_Source\PSoC5/CAN_1_TX_RX_func.c ****     *  None.
 168:.\Generated_Source\PSoC5/CAN_1_TX_RX_func.c ****     *
 169:.\Generated_Source\PSoC5/CAN_1_TX_RX_func.c ****     * Return:
 170:.\Generated_Source\PSoC5/CAN_1_TX_RX_func.c ****     *  Indication if Message has been sent.
 171:.\Generated_Source\PSoC5/CAN_1_TX_RX_func.c ****     *   Define                             Description
 172:.\Generated_Source\PSoC5/CAN_1_TX_RX_func.c ****     *    CYRET_SUCCESS                      Function passed successfully
 173:.\Generated_Source\PSoC5/CAN_1_TX_RX_func.c ****     *    CAN_1_FAIL              Function failed
 174:.\Generated_Source\PSoC5/CAN_1_TX_RX_func.c ****     *
 175:.\Generated_Source\PSoC5/CAN_1_TX_RX_func.c ****     *******************************************************************************/
 176:.\Generated_Source\PSoC5/CAN_1_TX_RX_func.c ****     uint8 CAN_1_SendMsg0(void) 
 177:.\Generated_Source\PSoC5/CAN_1_TX_RX_func.c ****     {
 329              		.loc 1 177 0
 330              		.cfi_startproc
ARM GAS  C:\Users\Schuyler\AppData\Local\Temp\ccI6WHHk.s 			page 10


 331              		@ args = 0, pretend = 0, frame = 8
 332              		@ frame_needed = 1, uses_anonymous_args = 0
 333              		@ link register save eliminated.
 334 0000 80B4     		push	{r7}
 335              		.cfi_def_cfa_offset 4
 336              		.cfi_offset 7, -4
 337 0002 83B0     		sub	sp, sp, #12
 338              		.cfi_def_cfa_offset 16
 339 0004 00AF     		add	r7, sp, #0
 340              		.cfi_def_cfa_register 7
 178:.\Generated_Source\PSoC5/CAN_1_TX_RX_func.c ****         uint8 result = CYRET_SUCCESS;
 341              		.loc 1 178 0
 342 0006 0023     		movs	r3, #0
 343 0008 FB71     		strb	r3, [r7, #7]
 179:.\Generated_Source\PSoC5/CAN_1_TX_RX_func.c ****         
 180:.\Generated_Source\PSoC5/CAN_1_TX_RX_func.c ****         if ((CAN_1_TX[0u].txcmd.byte[0u] & CAN_1_TX_REQUEST_PENDING) ==
 344              		.loc 1 180 0
 345 000a 0C4B     		ldr	r3, .L32
 346 000c 1B78     		ldrb	r3, [r3]
 347 000e DBB2     		uxtb	r3, r3
 348 0010 03F00103 		and	r3, r3, #1
 349 0014 002B     		cmp	r3, #0
 350 0016 02D0     		beq	.L29
 181:.\Generated_Source\PSoC5/CAN_1_TX_RX_func.c ****             CAN_1_TX_REQUEST_PENDING)
 182:.\Generated_Source\PSoC5/CAN_1_TX_RX_func.c ****         {
 183:.\Generated_Source\PSoC5/CAN_1_TX_RX_func.c ****             result = CAN_1_FAIL;
 351              		.loc 1 183 0
 352 0018 0123     		movs	r3, #1
 353 001a FB71     		strb	r3, [r7, #7]
 354 001c 06E0     		b	.L30
 355              	.L29:
 184:.\Generated_Source\PSoC5/CAN_1_TX_RX_func.c ****         }
 185:.\Generated_Source\PSoC5/CAN_1_TX_RX_func.c ****         else
 186:.\Generated_Source\PSoC5/CAN_1_TX_RX_func.c ****         {
 187:.\Generated_Source\PSoC5/CAN_1_TX_RX_func.c ****             /* `#START MESSAGE_0_TRASMITTED` */
 188:.\Generated_Source\PSoC5/CAN_1_TX_RX_func.c ****             
 189:.\Generated_Source\PSoC5/CAN_1_TX_RX_func.c ****             CAN_1_TX_DATA_BYTE1(0) = Tx_Data;
 356              		.loc 1 189 0
 357 001e 074B     		ldr	r3, .L32
 358 0020 074A     		ldr	r2, .L32+4
 359 0022 1278     		ldrb	r2, [r2]	@ zero_extendqisi2
 360 0024 DA72     		strb	r2, [r3, #11]
 190:.\Generated_Source\PSoC5/CAN_1_TX_RX_func.c **** 
 191:.\Generated_Source\PSoC5/CAN_1_TX_RX_func.c ****             /* `#END` */
 192:.\Generated_Source\PSoC5/CAN_1_TX_RX_func.c ****             
 193:.\Generated_Source\PSoC5/CAN_1_TX_RX_func.c ****             CY_SET_REG32((reg32 *) &CAN_1_TX[0u].txcmd, CAN_1_SEND_MESSAGE);
 361              		.loc 1 193 0
 362 0026 054B     		ldr	r3, .L32
 363 0028 0122     		movs	r2, #1
 364 002a 1A60     		str	r2, [r3]
 365              	.L30:
 194:.\Generated_Source\PSoC5/CAN_1_TX_RX_func.c ****         }
 195:.\Generated_Source\PSoC5/CAN_1_TX_RX_func.c ****     
 196:.\Generated_Source\PSoC5/CAN_1_TX_RX_func.c ****         return (result);
 366              		.loc 1 196 0
 367 002c FB79     		ldrb	r3, [r7, #7]	@ zero_extendqisi2
 197:.\Generated_Source\PSoC5/CAN_1_TX_RX_func.c ****     }    
ARM GAS  C:\Users\Schuyler\AppData\Local\Temp\ccI6WHHk.s 			page 11


 368              		.loc 1 197 0
 369 002e 1846     		mov	r0, r3
 370 0030 0C37     		adds	r7, r7, #12
 371 0032 BD46     		mov	sp, r7
 372              		@ sp needed
 373 0034 5DF8047B 		ldr	r7, [sp], #4
 374 0038 7047     		bx	lr
 375              	.L33:
 376 003a 00BF     		.align	2
 377              	.L32:
 378 003c 20A00040 		.word	1073782816
 379 0040 00000000 		.word	Tx_Data
 380              		.cfi_endproc
 381              	.LFE2:
 382              		.size	CAN_1_SendMsg0, .-CAN_1_SendMsg0
 383              		.section	.text.CAN_1_SendMsg1,"ax",%progbits
 384              		.align	2
 385              		.global	CAN_1_SendMsg1
 386              		.thumb
 387              		.thumb_func
 388              		.type	CAN_1_SendMsg1, %function
 389              	CAN_1_SendMsg1:
 390              	.LFB3:
 198:.\Generated_Source\PSoC5/CAN_1_TX_RX_func.c **** #endif /* CAN_1_TX0_FUNC_ENABLE */
 199:.\Generated_Source\PSoC5/CAN_1_TX_RX_func.c **** 
 200:.\Generated_Source\PSoC5/CAN_1_TX_RX_func.c **** 
 201:.\Generated_Source\PSoC5/CAN_1_TX_RX_func.c **** #if (CAN_1_TX1_FUNC_ENABLE)
 202:.\Generated_Source\PSoC5/CAN_1_TX_RX_func.c ****     /*******************************************************************************
 203:.\Generated_Source\PSoC5/CAN_1_TX_RX_func.c ****     * FUNCTION NAME:   CAN_1_SendMsg1
 204:.\Generated_Source\PSoC5/CAN_1_TX_RX_func.c ****     ********************************************************************************
 205:.\Generated_Source\PSoC5/CAN_1_TX_RX_func.c ****     *
 206:.\Generated_Source\PSoC5/CAN_1_TX_RX_func.c ****     * Summary:
 207:.\Generated_Source\PSoC5/CAN_1_TX_RX_func.c ****     *  This function is entry point to Transmit Message 1. Function check
 208:.\Generated_Source\PSoC5/CAN_1_TX_RX_func.c ****     *  if mailbox 1 doesn't already have an un-transmitted messages waiting for
 209:.\Generated_Source\PSoC5/CAN_1_TX_RX_func.c ****     *  arbitration. If not initiate transmission of the message.
 210:.\Generated_Source\PSoC5/CAN_1_TX_RX_func.c ****     *  Only generated for Transmit mailbox designed as Full.
 211:.\Generated_Source\PSoC5/CAN_1_TX_RX_func.c ****     *
 212:.\Generated_Source\PSoC5/CAN_1_TX_RX_func.c ****     * Parameters:
 213:.\Generated_Source\PSoC5/CAN_1_TX_RX_func.c ****     *  None.
 214:.\Generated_Source\PSoC5/CAN_1_TX_RX_func.c ****     *
 215:.\Generated_Source\PSoC5/CAN_1_TX_RX_func.c ****     * Return:
 216:.\Generated_Source\PSoC5/CAN_1_TX_RX_func.c ****     *  Indication if Message has been sent.
 217:.\Generated_Source\PSoC5/CAN_1_TX_RX_func.c ****     *   Define                             Description
 218:.\Generated_Source\PSoC5/CAN_1_TX_RX_func.c ****     *    CYRET_SUCCESS                      Function passed successfully
 219:.\Generated_Source\PSoC5/CAN_1_TX_RX_func.c ****     *    CAN_1_FAIL              Function failed
 220:.\Generated_Source\PSoC5/CAN_1_TX_RX_func.c ****     *
 221:.\Generated_Source\PSoC5/CAN_1_TX_RX_func.c ****     *******************************************************************************/
 222:.\Generated_Source\PSoC5/CAN_1_TX_RX_func.c ****     uint8 CAN_1_SendMsg1(void) 
 223:.\Generated_Source\PSoC5/CAN_1_TX_RX_func.c ****     {
 391              		.loc 1 223 0
 392              		.cfi_startproc
 393              		@ args = 0, pretend = 0, frame = 8
 394              		@ frame_needed = 1, uses_anonymous_args = 0
 395              		@ link register save eliminated.
 396 0000 80B4     		push	{r7}
 397              		.cfi_def_cfa_offset 4
 398              		.cfi_offset 7, -4
ARM GAS  C:\Users\Schuyler\AppData\Local\Temp\ccI6WHHk.s 			page 12


 399 0002 83B0     		sub	sp, sp, #12
 400              		.cfi_def_cfa_offset 16
 401 0004 00AF     		add	r7, sp, #0
 402              		.cfi_def_cfa_register 7
 224:.\Generated_Source\PSoC5/CAN_1_TX_RX_func.c ****         uint8 result = CYRET_SUCCESS;
 403              		.loc 1 224 0
 404 0006 0023     		movs	r3, #0
 405 0008 FB71     		strb	r3, [r7, #7]
 225:.\Generated_Source\PSoC5/CAN_1_TX_RX_func.c ****         
 226:.\Generated_Source\PSoC5/CAN_1_TX_RX_func.c ****         if ((CAN_1_TX[1u].txcmd.byte[0u] & CAN_1_TX_REQUEST_PENDING) ==
 406              		.loc 1 226 0
 407 000a 0A4B     		ldr	r3, .L38
 408 000c 1B78     		ldrb	r3, [r3]
 409 000e DBB2     		uxtb	r3, r3
 410 0010 03F00103 		and	r3, r3, #1
 411 0014 002B     		cmp	r3, #0
 412 0016 02D0     		beq	.L35
 227:.\Generated_Source\PSoC5/CAN_1_TX_RX_func.c ****             CAN_1_TX_REQUEST_PENDING)
 228:.\Generated_Source\PSoC5/CAN_1_TX_RX_func.c ****         {
 229:.\Generated_Source\PSoC5/CAN_1_TX_RX_func.c ****             result = CAN_1_FAIL;
 413              		.loc 1 229 0
 414 0018 0123     		movs	r3, #1
 415 001a FB71     		strb	r3, [r7, #7]
 416 001c 02E0     		b	.L36
 417              	.L35:
 230:.\Generated_Source\PSoC5/CAN_1_TX_RX_func.c ****         }
 231:.\Generated_Source\PSoC5/CAN_1_TX_RX_func.c ****         else
 232:.\Generated_Source\PSoC5/CAN_1_TX_RX_func.c ****         {
 233:.\Generated_Source\PSoC5/CAN_1_TX_RX_func.c ****             /* `#START MESSAGE_1_TRASMITTED` */
 234:.\Generated_Source\PSoC5/CAN_1_TX_RX_func.c **** 
 235:.\Generated_Source\PSoC5/CAN_1_TX_RX_func.c ****             /* `#END` */
 236:.\Generated_Source\PSoC5/CAN_1_TX_RX_func.c ****             
 237:.\Generated_Source\PSoC5/CAN_1_TX_RX_func.c ****             CY_SET_REG32((reg32 *) & CAN_1_TX[1u].txcmd, CAN_1_SEND_MESSAGE);
 418              		.loc 1 237 0
 419 001e 054B     		ldr	r3, .L38
 420 0020 0122     		movs	r2, #1
 421 0022 1A60     		str	r2, [r3]
 422              	.L36:
 238:.\Generated_Source\PSoC5/CAN_1_TX_RX_func.c ****         }
 239:.\Generated_Source\PSoC5/CAN_1_TX_RX_func.c ****     
 240:.\Generated_Source\PSoC5/CAN_1_TX_RX_func.c ****         return (result);
 423              		.loc 1 240 0
 424 0024 FB79     		ldrb	r3, [r7, #7]	@ zero_extendqisi2
 241:.\Generated_Source\PSoC5/CAN_1_TX_RX_func.c ****     }    
 425              		.loc 1 241 0
 426 0026 1846     		mov	r0, r3
 427 0028 0C37     		adds	r7, r7, #12
 428 002a BD46     		mov	sp, r7
 429              		@ sp needed
 430 002c 5DF8047B 		ldr	r7, [sp], #4
 431 0030 7047     		bx	lr
 432              	.L39:
 433 0032 00BF     		.align	2
 434              	.L38:
 435 0034 30A00040 		.word	1073782832
 436              		.cfi_endproc
 437              	.LFE3:
ARM GAS  C:\Users\Schuyler\AppData\Local\Temp\ccI6WHHk.s 			page 13


 438              		.size	CAN_1_SendMsg1, .-CAN_1_SendMsg1
 439              		.section	.text.CAN_1_ReceiveMsg,"ax",%progbits
 440              		.align	2
 441              		.global	CAN_1_ReceiveMsg
 442              		.thumb
 443              		.thumb_func
 444              		.type	CAN_1_ReceiveMsg, %function
 445              	CAN_1_ReceiveMsg:
 446              	.LFB4:
 242:.\Generated_Source\PSoC5/CAN_1_TX_RX_func.c **** #endif /* CAN_1_TX1_FUNC_ENABLE */
 243:.\Generated_Source\PSoC5/CAN_1_TX_RX_func.c **** 
 244:.\Generated_Source\PSoC5/CAN_1_TX_RX_func.c **** 
 245:.\Generated_Source\PSoC5/CAN_1_TX_RX_func.c **** #if (CAN_1_TX2_FUNC_ENABLE)
 246:.\Generated_Source\PSoC5/CAN_1_TX_RX_func.c ****     /*******************************************************************************
 247:.\Generated_Source\PSoC5/CAN_1_TX_RX_func.c ****     * FUNCTION NAME:   CAN_1_SendMsg2
 248:.\Generated_Source\PSoC5/CAN_1_TX_RX_func.c ****     ********************************************************************************
 249:.\Generated_Source\PSoC5/CAN_1_TX_RX_func.c ****     *
 250:.\Generated_Source\PSoC5/CAN_1_TX_RX_func.c ****     * Summary:
 251:.\Generated_Source\PSoC5/CAN_1_TX_RX_func.c ****     *  This function is entry point to Transmit Message 2. Function check
 252:.\Generated_Source\PSoC5/CAN_1_TX_RX_func.c ****     *  if mailbox 2 doesn't already have an un-transmitted messages waiting for
 253:.\Generated_Source\PSoC5/CAN_1_TX_RX_func.c ****     *  arbitration. If not initiate transmission of the message.
 254:.\Generated_Source\PSoC5/CAN_1_TX_RX_func.c ****     *  Only generated for Transmit mailbox designed as Full.
 255:.\Generated_Source\PSoC5/CAN_1_TX_RX_func.c ****     *
 256:.\Generated_Source\PSoC5/CAN_1_TX_RX_func.c ****     * Parameters:
 257:.\Generated_Source\PSoC5/CAN_1_TX_RX_func.c ****     *  None.
 258:.\Generated_Source\PSoC5/CAN_1_TX_RX_func.c ****     *
 259:.\Generated_Source\PSoC5/CAN_1_TX_RX_func.c ****     * Return:
 260:.\Generated_Source\PSoC5/CAN_1_TX_RX_func.c ****     *  Indication if Message has been sent.
 261:.\Generated_Source\PSoC5/CAN_1_TX_RX_func.c ****     *   Define                             Description
 262:.\Generated_Source\PSoC5/CAN_1_TX_RX_func.c ****     *    CYRET_SUCCESS                      Function passed successfully
 263:.\Generated_Source\PSoC5/CAN_1_TX_RX_func.c ****     *    CAN_1_FAIL              Function failed
 264:.\Generated_Source\PSoC5/CAN_1_TX_RX_func.c ****     *
 265:.\Generated_Source\PSoC5/CAN_1_TX_RX_func.c ****     *******************************************************************************/
 266:.\Generated_Source\PSoC5/CAN_1_TX_RX_func.c ****     uint8 CAN_1_SendMsg2(void) 
 267:.\Generated_Source\PSoC5/CAN_1_TX_RX_func.c ****     {
 268:.\Generated_Source\PSoC5/CAN_1_TX_RX_func.c ****         uint8 result = CYRET_SUCCESS;
 269:.\Generated_Source\PSoC5/CAN_1_TX_RX_func.c ****         
 270:.\Generated_Source\PSoC5/CAN_1_TX_RX_func.c ****         if ((CAN_1_TX[2u].txcmd.byte[0u] & CAN_1_TX_REQUEST_PENDING) ==
 271:.\Generated_Source\PSoC5/CAN_1_TX_RX_func.c ****             CAN_1_TX_REQUEST_PENDING)
 272:.\Generated_Source\PSoC5/CAN_1_TX_RX_func.c ****         {
 273:.\Generated_Source\PSoC5/CAN_1_TX_RX_func.c ****             result = CAN_1_FAIL;
 274:.\Generated_Source\PSoC5/CAN_1_TX_RX_func.c ****         }
 275:.\Generated_Source\PSoC5/CAN_1_TX_RX_func.c ****         else
 276:.\Generated_Source\PSoC5/CAN_1_TX_RX_func.c ****         {
 277:.\Generated_Source\PSoC5/CAN_1_TX_RX_func.c ****             /* `#START MESSAGE_2_TRASMITTED` */
 278:.\Generated_Source\PSoC5/CAN_1_TX_RX_func.c **** 
 279:.\Generated_Source\PSoC5/CAN_1_TX_RX_func.c ****             /* `#END` */
 280:.\Generated_Source\PSoC5/CAN_1_TX_RX_func.c ****             
 281:.\Generated_Source\PSoC5/CAN_1_TX_RX_func.c ****             CY_SET_REG32((reg32 *) & CAN_1_TX[2u].txcmd, CAN_1_SEND_MESSAGE);
 282:.\Generated_Source\PSoC5/CAN_1_TX_RX_func.c ****         }
 283:.\Generated_Source\PSoC5/CAN_1_TX_RX_func.c ****     
 284:.\Generated_Source\PSoC5/CAN_1_TX_RX_func.c ****         return (result);
 285:.\Generated_Source\PSoC5/CAN_1_TX_RX_func.c ****     }
 286:.\Generated_Source\PSoC5/CAN_1_TX_RX_func.c **** #endif /* CAN_1_TX2_FUNC_ENABLE */
 287:.\Generated_Source\PSoC5/CAN_1_TX_RX_func.c **** 
 288:.\Generated_Source\PSoC5/CAN_1_TX_RX_func.c **** 
 289:.\Generated_Source\PSoC5/CAN_1_TX_RX_func.c **** #if (CAN_1_TX3_FUNC_ENABLE)
ARM GAS  C:\Users\Schuyler\AppData\Local\Temp\ccI6WHHk.s 			page 14


 290:.\Generated_Source\PSoC5/CAN_1_TX_RX_func.c ****     /*******************************************************************************
 291:.\Generated_Source\PSoC5/CAN_1_TX_RX_func.c ****     * FUNCTION NAME:   CAN_1_SendMsg3
 292:.\Generated_Source\PSoC5/CAN_1_TX_RX_func.c ****     ********************************************************************************
 293:.\Generated_Source\PSoC5/CAN_1_TX_RX_func.c ****     *
 294:.\Generated_Source\PSoC5/CAN_1_TX_RX_func.c ****     * Summary:
 295:.\Generated_Source\PSoC5/CAN_1_TX_RX_func.c ****     *  This function is entry point to Transmit Message 3. Function check
 296:.\Generated_Source\PSoC5/CAN_1_TX_RX_func.c ****     *  if mailbox 3 doesn't already have an un-transmitted messages waiting for
 297:.\Generated_Source\PSoC5/CAN_1_TX_RX_func.c ****     *  arbitration. If not initiate transmission of the message.
 298:.\Generated_Source\PSoC5/CAN_1_TX_RX_func.c ****     *  Only generated for Transmit mailbox designed as Full.
 299:.\Generated_Source\PSoC5/CAN_1_TX_RX_func.c ****     *
 300:.\Generated_Source\PSoC5/CAN_1_TX_RX_func.c ****     * Parameters:
 301:.\Generated_Source\PSoC5/CAN_1_TX_RX_func.c ****     *  None.
 302:.\Generated_Source\PSoC5/CAN_1_TX_RX_func.c ****     *
 303:.\Generated_Source\PSoC5/CAN_1_TX_RX_func.c ****     * Return:
 304:.\Generated_Source\PSoC5/CAN_1_TX_RX_func.c ****     *  Indication if Message has been sent.
 305:.\Generated_Source\PSoC5/CAN_1_TX_RX_func.c ****     *   Define                             Description
 306:.\Generated_Source\PSoC5/CAN_1_TX_RX_func.c ****     *    CYRET_SUCCESS                      Function passed successfully
 307:.\Generated_Source\PSoC5/CAN_1_TX_RX_func.c ****     *    CAN_1_FAIL              Function failed
 308:.\Generated_Source\PSoC5/CAN_1_TX_RX_func.c ****     *
 309:.\Generated_Source\PSoC5/CAN_1_TX_RX_func.c ****     *******************************************************************************/
 310:.\Generated_Source\PSoC5/CAN_1_TX_RX_func.c ****     uint8 CAN_1_SendMsg3(void) 
 311:.\Generated_Source\PSoC5/CAN_1_TX_RX_func.c ****     {
 312:.\Generated_Source\PSoC5/CAN_1_TX_RX_func.c ****         uint8 result = CYRET_SUCCESS;
 313:.\Generated_Source\PSoC5/CAN_1_TX_RX_func.c ****         
 314:.\Generated_Source\PSoC5/CAN_1_TX_RX_func.c ****         if ((CAN_1_TX[3u].txcmd.byte[0u] & CAN_1_TX_REQUEST_PENDING) ==
 315:.\Generated_Source\PSoC5/CAN_1_TX_RX_func.c ****             CAN_1_TX_REQUEST_PENDING)
 316:.\Generated_Source\PSoC5/CAN_1_TX_RX_func.c ****         {
 317:.\Generated_Source\PSoC5/CAN_1_TX_RX_func.c ****             result = CAN_1_FAIL;
 318:.\Generated_Source\PSoC5/CAN_1_TX_RX_func.c ****         }
 319:.\Generated_Source\PSoC5/CAN_1_TX_RX_func.c ****         else
 320:.\Generated_Source\PSoC5/CAN_1_TX_RX_func.c ****         {
 321:.\Generated_Source\PSoC5/CAN_1_TX_RX_func.c ****             /* `#START MESSAGE_3_TRASMITTED` */
 322:.\Generated_Source\PSoC5/CAN_1_TX_RX_func.c **** 
 323:.\Generated_Source\PSoC5/CAN_1_TX_RX_func.c ****             /* `#END` */
 324:.\Generated_Source\PSoC5/CAN_1_TX_RX_func.c ****             
 325:.\Generated_Source\PSoC5/CAN_1_TX_RX_func.c ****             CY_SET_REG32((reg32 *) & CAN_1_TX[3u].txcmd, CAN_1_SEND_MESSAGE);
 326:.\Generated_Source\PSoC5/CAN_1_TX_RX_func.c ****         }
 327:.\Generated_Source\PSoC5/CAN_1_TX_RX_func.c ****     
 328:.\Generated_Source\PSoC5/CAN_1_TX_RX_func.c ****         return (result);
 329:.\Generated_Source\PSoC5/CAN_1_TX_RX_func.c ****     }    
 330:.\Generated_Source\PSoC5/CAN_1_TX_RX_func.c **** #endif /* CAN_1_TX3_FUNC_ENABLE */
 331:.\Generated_Source\PSoC5/CAN_1_TX_RX_func.c **** 
 332:.\Generated_Source\PSoC5/CAN_1_TX_RX_func.c **** 
 333:.\Generated_Source\PSoC5/CAN_1_TX_RX_func.c **** #if (CAN_1_TX4_FUNC_ENABLE)
 334:.\Generated_Source\PSoC5/CAN_1_TX_RX_func.c ****     /*******************************************************************************
 335:.\Generated_Source\PSoC5/CAN_1_TX_RX_func.c ****     * FUNCTION NAME:   CAN_1_SendMsg4
 336:.\Generated_Source\PSoC5/CAN_1_TX_RX_func.c ****     ********************************************************************************
 337:.\Generated_Source\PSoC5/CAN_1_TX_RX_func.c ****     *
 338:.\Generated_Source\PSoC5/CAN_1_TX_RX_func.c ****     * Summary:
 339:.\Generated_Source\PSoC5/CAN_1_TX_RX_func.c ****     *  This function is entry point to Transmit Message 4. Function check if mailbox
 340:.\Generated_Source\PSoC5/CAN_1_TX_RX_func.c ****     *  4 doesn't already have an un-transmitted messages waiting for arbitration. 
 341:.\Generated_Source\PSoC5/CAN_1_TX_RX_func.c ****     *  If not initiate transmission of the message. Only generated for Transmit 
 342:.\Generated_Source\PSoC5/CAN_1_TX_RX_func.c ****     *  mailbox designed as Full.
 343:.\Generated_Source\PSoC5/CAN_1_TX_RX_func.c ****     *
 344:.\Generated_Source\PSoC5/CAN_1_TX_RX_func.c ****     * Parameters:
 345:.\Generated_Source\PSoC5/CAN_1_TX_RX_func.c ****     *  None.
 346:.\Generated_Source\PSoC5/CAN_1_TX_RX_func.c ****     *
ARM GAS  C:\Users\Schuyler\AppData\Local\Temp\ccI6WHHk.s 			page 15


 347:.\Generated_Source\PSoC5/CAN_1_TX_RX_func.c ****     * Return:
 348:.\Generated_Source\PSoC5/CAN_1_TX_RX_func.c ****     *  Indication if Message has been sent.
 349:.\Generated_Source\PSoC5/CAN_1_TX_RX_func.c ****     *   Define                             Description
 350:.\Generated_Source\PSoC5/CAN_1_TX_RX_func.c ****     *    CYRET_SUCCESS                      Function passed successfully
 351:.\Generated_Source\PSoC5/CAN_1_TX_RX_func.c ****     *    CAN_1_FAIL              Function failed
 352:.\Generated_Source\PSoC5/CAN_1_TX_RX_func.c ****     *
 353:.\Generated_Source\PSoC5/CAN_1_TX_RX_func.c ****     *******************************************************************************/
 354:.\Generated_Source\PSoC5/CAN_1_TX_RX_func.c ****     uint8 CAN_1_SendMsg4(void) 
 355:.\Generated_Source\PSoC5/CAN_1_TX_RX_func.c ****     {
 356:.\Generated_Source\PSoC5/CAN_1_TX_RX_func.c ****         uint8 result = CYRET_SUCCESS;
 357:.\Generated_Source\PSoC5/CAN_1_TX_RX_func.c ****         
 358:.\Generated_Source\PSoC5/CAN_1_TX_RX_func.c ****         if ((CAN_1_TX[4u].txcmd.byte[0u] & CAN_1_TX_REQUEST_PENDING) ==
 359:.\Generated_Source\PSoC5/CAN_1_TX_RX_func.c ****             CAN_1_TX_REQUEST_PENDING)
 360:.\Generated_Source\PSoC5/CAN_1_TX_RX_func.c ****         {
 361:.\Generated_Source\PSoC5/CAN_1_TX_RX_func.c ****             result = CAN_1_FAIL;
 362:.\Generated_Source\PSoC5/CAN_1_TX_RX_func.c ****         }
 363:.\Generated_Source\PSoC5/CAN_1_TX_RX_func.c ****         else
 364:.\Generated_Source\PSoC5/CAN_1_TX_RX_func.c ****         {
 365:.\Generated_Source\PSoC5/CAN_1_TX_RX_func.c ****             /* `#START MESSAGE_4_TRASMITTED` */
 366:.\Generated_Source\PSoC5/CAN_1_TX_RX_func.c **** 
 367:.\Generated_Source\PSoC5/CAN_1_TX_RX_func.c ****             /* `#END` */
 368:.\Generated_Source\PSoC5/CAN_1_TX_RX_func.c ****             
 369:.\Generated_Source\PSoC5/CAN_1_TX_RX_func.c ****             CY_SET_REG32((reg32 *) & CAN_1_TX[4u].txcmd, CAN_1_SEND_MESSAGE);
 370:.\Generated_Source\PSoC5/CAN_1_TX_RX_func.c ****         }
 371:.\Generated_Source\PSoC5/CAN_1_TX_RX_func.c ****     
 372:.\Generated_Source\PSoC5/CAN_1_TX_RX_func.c ****         return (result);
 373:.\Generated_Source\PSoC5/CAN_1_TX_RX_func.c ****     }    
 374:.\Generated_Source\PSoC5/CAN_1_TX_RX_func.c **** #endif /* CAN_1_TX4_FUNC_ENABLE */
 375:.\Generated_Source\PSoC5/CAN_1_TX_RX_func.c **** 
 376:.\Generated_Source\PSoC5/CAN_1_TX_RX_func.c **** 
 377:.\Generated_Source\PSoC5/CAN_1_TX_RX_func.c **** #if (CAN_1_TX5_FUNC_ENABLE)
 378:.\Generated_Source\PSoC5/CAN_1_TX_RX_func.c ****     /*******************************************************************************
 379:.\Generated_Source\PSoC5/CAN_1_TX_RX_func.c ****     * FUNCTION NAME:   CAN_1_SendMsg5
 380:.\Generated_Source\PSoC5/CAN_1_TX_RX_func.c ****     ********************************************************************************
 381:.\Generated_Source\PSoC5/CAN_1_TX_RX_func.c ****     *
 382:.\Generated_Source\PSoC5/CAN_1_TX_RX_func.c ****     * Summary:
 383:.\Generated_Source\PSoC5/CAN_1_TX_RX_func.c ****     *  This function is entry point to Transmit Message 5. Function check
 384:.\Generated_Source\PSoC5/CAN_1_TX_RX_func.c ****     *  if mailbox 5 doesn't already have an un-transmitted messages waiting for
 385:.\Generated_Source\PSoC5/CAN_1_TX_RX_func.c ****     *  arbitration. If not initiate transmission of the message. Only generated for
 386:.\Generated_Source\PSoC5/CAN_1_TX_RX_func.c ****     *  Transmit mailbox designed as Full.
 387:.\Generated_Source\PSoC5/CAN_1_TX_RX_func.c ****     *
 388:.\Generated_Source\PSoC5/CAN_1_TX_RX_func.c ****     * Parameters:
 389:.\Generated_Source\PSoC5/CAN_1_TX_RX_func.c ****     *  None.
 390:.\Generated_Source\PSoC5/CAN_1_TX_RX_func.c ****     *
 391:.\Generated_Source\PSoC5/CAN_1_TX_RX_func.c ****     * Return:
 392:.\Generated_Source\PSoC5/CAN_1_TX_RX_func.c ****     *  Indication if Message has been sent.
 393:.\Generated_Source\PSoC5/CAN_1_TX_RX_func.c ****     *   Define                             Description
 394:.\Generated_Source\PSoC5/CAN_1_TX_RX_func.c ****     *    CYRET_SUCCESS                      Function passed successfully
 395:.\Generated_Source\PSoC5/CAN_1_TX_RX_func.c ****     *    CAN_1_FAIL              Function failed
 396:.\Generated_Source\PSoC5/CAN_1_TX_RX_func.c ****     *
 397:.\Generated_Source\PSoC5/CAN_1_TX_RX_func.c ****     *******************************************************************************/
 398:.\Generated_Source\PSoC5/CAN_1_TX_RX_func.c ****     uint8 CAN_1_SendMsg5(void) 
 399:.\Generated_Source\PSoC5/CAN_1_TX_RX_func.c ****     {
 400:.\Generated_Source\PSoC5/CAN_1_TX_RX_func.c ****         uint8 result = CYRET_SUCCESS;
 401:.\Generated_Source\PSoC5/CAN_1_TX_RX_func.c ****         
 402:.\Generated_Source\PSoC5/CAN_1_TX_RX_func.c ****         if ((CAN_1_TX[5u].txcmd.byte[0u] & CAN_1_TX_REQUEST_PENDING) ==
 403:.\Generated_Source\PSoC5/CAN_1_TX_RX_func.c ****             CAN_1_TX_REQUEST_PENDING)
ARM GAS  C:\Users\Schuyler\AppData\Local\Temp\ccI6WHHk.s 			page 16


 404:.\Generated_Source\PSoC5/CAN_1_TX_RX_func.c ****         {
 405:.\Generated_Source\PSoC5/CAN_1_TX_RX_func.c ****             result = CAN_1_FAIL;
 406:.\Generated_Source\PSoC5/CAN_1_TX_RX_func.c ****         }
 407:.\Generated_Source\PSoC5/CAN_1_TX_RX_func.c ****         else
 408:.\Generated_Source\PSoC5/CAN_1_TX_RX_func.c ****         {
 409:.\Generated_Source\PSoC5/CAN_1_TX_RX_func.c ****             /* `#START MESSAGE_5_TRASMITTED` */
 410:.\Generated_Source\PSoC5/CAN_1_TX_RX_func.c **** 
 411:.\Generated_Source\PSoC5/CAN_1_TX_RX_func.c ****             /* `#END` */
 412:.\Generated_Source\PSoC5/CAN_1_TX_RX_func.c ****             
 413:.\Generated_Source\PSoC5/CAN_1_TX_RX_func.c ****             CY_SET_REG32((reg32 *) & CAN_1_TX[5u].txcmd, CAN_1_SEND_MESSAGE);
 414:.\Generated_Source\PSoC5/CAN_1_TX_RX_func.c ****         }
 415:.\Generated_Source\PSoC5/CAN_1_TX_RX_func.c ****     
 416:.\Generated_Source\PSoC5/CAN_1_TX_RX_func.c ****         return (result);
 417:.\Generated_Source\PSoC5/CAN_1_TX_RX_func.c ****     }    
 418:.\Generated_Source\PSoC5/CAN_1_TX_RX_func.c **** #endif /* CAN_1_TX5_FUNC_ENABLE */
 419:.\Generated_Source\PSoC5/CAN_1_TX_RX_func.c **** 
 420:.\Generated_Source\PSoC5/CAN_1_TX_RX_func.c **** 
 421:.\Generated_Source\PSoC5/CAN_1_TX_RX_func.c **** #if (CAN_1_TX6_FUNC_ENABLE)
 422:.\Generated_Source\PSoC5/CAN_1_TX_RX_func.c ****     /*******************************************************************************
 423:.\Generated_Source\PSoC5/CAN_1_TX_RX_func.c ****     * FUNCTION NAME:   CAN_1_SendMsg6
 424:.\Generated_Source\PSoC5/CAN_1_TX_RX_func.c ****     ********************************************************************************
 425:.\Generated_Source\PSoC5/CAN_1_TX_RX_func.c ****     *
 426:.\Generated_Source\PSoC5/CAN_1_TX_RX_func.c ****     * Summary:
 427:.\Generated_Source\PSoC5/CAN_1_TX_RX_func.c ****     *  This function is entry point to Transmit Message 6. Function check
 428:.\Generated_Source\PSoC5/CAN_1_TX_RX_func.c ****     *  if mailbox 6 doesn't already have an un-transmitted messages waiting for
 429:.\Generated_Source\PSoC5/CAN_1_TX_RX_func.c ****     *  arbitration. If not initiate transmission of the message. Only generated for
 430:.\Generated_Source\PSoC5/CAN_1_TX_RX_func.c ****     *  Transmit mailbox designed as Full.
 431:.\Generated_Source\PSoC5/CAN_1_TX_RX_func.c ****     *
 432:.\Generated_Source\PSoC5/CAN_1_TX_RX_func.c ****     * Parameters:
 433:.\Generated_Source\PSoC5/CAN_1_TX_RX_func.c ****     *  None.
 434:.\Generated_Source\PSoC5/CAN_1_TX_RX_func.c ****     *
 435:.\Generated_Source\PSoC5/CAN_1_TX_RX_func.c ****     * Return:
 436:.\Generated_Source\PSoC5/CAN_1_TX_RX_func.c ****     *  Indication if Message has been sent.
 437:.\Generated_Source\PSoC5/CAN_1_TX_RX_func.c ****     *   Define                             Description
 438:.\Generated_Source\PSoC5/CAN_1_TX_RX_func.c ****     *    CYRET_SUCCESS                      Function passed successfully
 439:.\Generated_Source\PSoC5/CAN_1_TX_RX_func.c ****     *    CAN_1_FAIL              Function failed
 440:.\Generated_Source\PSoC5/CAN_1_TX_RX_func.c ****     *
 441:.\Generated_Source\PSoC5/CAN_1_TX_RX_func.c ****     *******************************************************************************/
 442:.\Generated_Source\PSoC5/CAN_1_TX_RX_func.c ****     uint8 CAN_1_SendMsg6(void) 
 443:.\Generated_Source\PSoC5/CAN_1_TX_RX_func.c ****     {
 444:.\Generated_Source\PSoC5/CAN_1_TX_RX_func.c ****         uint8 result = CYRET_SUCCESS;
 445:.\Generated_Source\PSoC5/CAN_1_TX_RX_func.c ****         
 446:.\Generated_Source\PSoC5/CAN_1_TX_RX_func.c ****         if ((CAN_1_TX[6u].txcmd.byte[0u] & CAN_1_TX_REQUEST_PENDING) ==
 447:.\Generated_Source\PSoC5/CAN_1_TX_RX_func.c ****             CAN_1_TX_REQUEST_PENDING)
 448:.\Generated_Source\PSoC5/CAN_1_TX_RX_func.c ****         {
 449:.\Generated_Source\PSoC5/CAN_1_TX_RX_func.c ****             result = CAN_1_FAIL;
 450:.\Generated_Source\PSoC5/CAN_1_TX_RX_func.c ****         }
 451:.\Generated_Source\PSoC5/CAN_1_TX_RX_func.c ****         else
 452:.\Generated_Source\PSoC5/CAN_1_TX_RX_func.c ****         {
 453:.\Generated_Source\PSoC5/CAN_1_TX_RX_func.c ****             /* `#START MESSAGE_6_TRASMITTED` */
 454:.\Generated_Source\PSoC5/CAN_1_TX_RX_func.c **** 
 455:.\Generated_Source\PSoC5/CAN_1_TX_RX_func.c ****             /* `#END` */
 456:.\Generated_Source\PSoC5/CAN_1_TX_RX_func.c ****             
 457:.\Generated_Source\PSoC5/CAN_1_TX_RX_func.c ****             CY_SET_REG32((reg32 *) & CAN_1_TX[6u].txcmd, CAN_1_SEND_MESSAGE);
 458:.\Generated_Source\PSoC5/CAN_1_TX_RX_func.c ****         }
 459:.\Generated_Source\PSoC5/CAN_1_TX_RX_func.c ****     
 460:.\Generated_Source\PSoC5/CAN_1_TX_RX_func.c ****         return (result);
ARM GAS  C:\Users\Schuyler\AppData\Local\Temp\ccI6WHHk.s 			page 17


 461:.\Generated_Source\PSoC5/CAN_1_TX_RX_func.c ****     }    
 462:.\Generated_Source\PSoC5/CAN_1_TX_RX_func.c **** #endif /* CAN_1_TX6_FUNC_ENABLE */
 463:.\Generated_Source\PSoC5/CAN_1_TX_RX_func.c **** 
 464:.\Generated_Source\PSoC5/CAN_1_TX_RX_func.c **** 
 465:.\Generated_Source\PSoC5/CAN_1_TX_RX_func.c **** #if (CAN_1_TX7_FUNC_ENABLE)
 466:.\Generated_Source\PSoC5/CAN_1_TX_RX_func.c ****     /*******************************************************************************
 467:.\Generated_Source\PSoC5/CAN_1_TX_RX_func.c ****     * FUNCTION NAME:   CAN_1_SendMsg7)
 468:.\Generated_Source\PSoC5/CAN_1_TX_RX_func.c ****     ********************************************************************************
 469:.\Generated_Source\PSoC5/CAN_1_TX_RX_func.c ****     *
 470:.\Generated_Source\PSoC5/CAN_1_TX_RX_func.c ****     * Summary:
 471:.\Generated_Source\PSoC5/CAN_1_TX_RX_func.c ****     *  This function is entry point to Transmit Message 7. Function check
 472:.\Generated_Source\PSoC5/CAN_1_TX_RX_func.c ****     *  if mailbox 7 doesn't already have an un-transmitted messages waiting for
 473:.\Generated_Source\PSoC5/CAN_1_TX_RX_func.c ****     *  arbitration. If not initiate transmission of the message. Only generated for
 474:.\Generated_Source\PSoC5/CAN_1_TX_RX_func.c ****     *  Transmit mailbox designed as Full.
 475:.\Generated_Source\PSoC5/CAN_1_TX_RX_func.c ****     *
 476:.\Generated_Source\PSoC5/CAN_1_TX_RX_func.c ****     * Parameters:
 477:.\Generated_Source\PSoC5/CAN_1_TX_RX_func.c ****     *  None.
 478:.\Generated_Source\PSoC5/CAN_1_TX_RX_func.c ****     *
 479:.\Generated_Source\PSoC5/CAN_1_TX_RX_func.c ****     * Return:
 480:.\Generated_Source\PSoC5/CAN_1_TX_RX_func.c ****     *  Indication if Message has been sent.
 481:.\Generated_Source\PSoC5/CAN_1_TX_RX_func.c ****     *   Define                             Description
 482:.\Generated_Source\PSoC5/CAN_1_TX_RX_func.c ****     *    CYRET_SUCCESS                      Function passed successfully
 483:.\Generated_Source\PSoC5/CAN_1_TX_RX_func.c ****     *    CAN_1_FAIL              Function failed
 484:.\Generated_Source\PSoC5/CAN_1_TX_RX_func.c ****     *
 485:.\Generated_Source\PSoC5/CAN_1_TX_RX_func.c ****     *******************************************************************************/
 486:.\Generated_Source\PSoC5/CAN_1_TX_RX_func.c ****     uint8 CAN_1_SendMsg7(void) 
 487:.\Generated_Source\PSoC5/CAN_1_TX_RX_func.c ****     {
 488:.\Generated_Source\PSoC5/CAN_1_TX_RX_func.c ****         uint8 result = CYRET_SUCCESS;
 489:.\Generated_Source\PSoC5/CAN_1_TX_RX_func.c ****         
 490:.\Generated_Source\PSoC5/CAN_1_TX_RX_func.c ****         if ((CAN_1_TX[7u].txcmd.byte[0u] & CAN_1_TX_REQUEST_PENDING) ==
 491:.\Generated_Source\PSoC5/CAN_1_TX_RX_func.c ****             CAN_1_TX_REQUEST_PENDING)
 492:.\Generated_Source\PSoC5/CAN_1_TX_RX_func.c ****         {
 493:.\Generated_Source\PSoC5/CAN_1_TX_RX_func.c ****             result = CAN_1_FAIL;
 494:.\Generated_Source\PSoC5/CAN_1_TX_RX_func.c ****         }
 495:.\Generated_Source\PSoC5/CAN_1_TX_RX_func.c ****         else
 496:.\Generated_Source\PSoC5/CAN_1_TX_RX_func.c ****         {
 497:.\Generated_Source\PSoC5/CAN_1_TX_RX_func.c ****             /* `#START MESSAGE_7_TRASMITTED` */
 498:.\Generated_Source\PSoC5/CAN_1_TX_RX_func.c **** 
 499:.\Generated_Source\PSoC5/CAN_1_TX_RX_func.c ****             /* `#END` */
 500:.\Generated_Source\PSoC5/CAN_1_TX_RX_func.c ****             
 501:.\Generated_Source\PSoC5/CAN_1_TX_RX_func.c ****             CY_SET_REG32((reg32 *) & CAN_1_TX[7u].txcmd, CAN_1_SEND_MESSAGE);
 502:.\Generated_Source\PSoC5/CAN_1_TX_RX_func.c ****         }
 503:.\Generated_Source\PSoC5/CAN_1_TX_RX_func.c ****     
 504:.\Generated_Source\PSoC5/CAN_1_TX_RX_func.c ****         return (result);
 505:.\Generated_Source\PSoC5/CAN_1_TX_RX_func.c ****     }    
 506:.\Generated_Source\PSoC5/CAN_1_TX_RX_func.c **** #endif /* CAN_1_TX7_FUNC_ENABLE */
 507:.\Generated_Source\PSoC5/CAN_1_TX_RX_func.c **** 
 508:.\Generated_Source\PSoC5/CAN_1_TX_RX_func.c **** 
 509:.\Generated_Source\PSoC5/CAN_1_TX_RX_func.c **** /*******************************************************************************
 510:.\Generated_Source\PSoC5/CAN_1_TX_RX_func.c **** * FUNCTION NAME:   CAN_1_ReceiveMsg
 511:.\Generated_Source\PSoC5/CAN_1_TX_RX_func.c **** ********************************************************************************
 512:.\Generated_Source\PSoC5/CAN_1_TX_RX_func.c **** *
 513:.\Generated_Source\PSoC5/CAN_1_TX_RX_func.c **** * Summary:
 514:.\Generated_Source\PSoC5/CAN_1_TX_RX_func.c **** *  This function is entry point to Receive Message Interrupt for Basic 
 515:.\Generated_Source\PSoC5/CAN_1_TX_RX_func.c **** *  mailboxes. Clears Receive particular Message interrupt flag. Only generated 
 516:.\Generated_Source\PSoC5/CAN_1_TX_RX_func.c **** *  if one of Receive mailboxes designed as Basic.
 517:.\Generated_Source\PSoC5/CAN_1_TX_RX_func.c **** *
ARM GAS  C:\Users\Schuyler\AppData\Local\Temp\ccI6WHHk.s 			page 18


 518:.\Generated_Source\PSoC5/CAN_1_TX_RX_func.c **** * Parameters:
 519:.\Generated_Source\PSoC5/CAN_1_TX_RX_func.c **** *  rxMailbox: Mailbox number that trig Receive Message Interrupt.
 520:.\Generated_Source\PSoC5/CAN_1_TX_RX_func.c **** *
 521:.\Generated_Source\PSoC5/CAN_1_TX_RX_func.c **** * Return:
 522:.\Generated_Source\PSoC5/CAN_1_TX_RX_func.c **** *  None.
 523:.\Generated_Source\PSoC5/CAN_1_TX_RX_func.c **** *
 524:.\Generated_Source\PSoC5/CAN_1_TX_RX_func.c **** * Reentrant:
 525:.\Generated_Source\PSoC5/CAN_1_TX_RX_func.c **** *  Depends on Customer code.
 526:.\Generated_Source\PSoC5/CAN_1_TX_RX_func.c **** *
 527:.\Generated_Source\PSoC5/CAN_1_TX_RX_func.c **** *******************************************************************************/
 528:.\Generated_Source\PSoC5/CAN_1_TX_RX_func.c **** void CAN_1_ReceiveMsg(uint8 rxMailbox) 
 529:.\Generated_Source\PSoC5/CAN_1_TX_RX_func.c **** {
 447              		.loc 1 529 0
 448              		.cfi_startproc
 449              		@ args = 0, pretend = 0, frame = 8
 450              		@ frame_needed = 1, uses_anonymous_args = 0
 451              		@ link register save eliminated.
 452 0000 80B4     		push	{r7}
 453              		.cfi_def_cfa_offset 4
 454              		.cfi_offset 7, -4
 455 0002 83B0     		sub	sp, sp, #12
 456              		.cfi_def_cfa_offset 16
 457 0004 00AF     		add	r7, sp, #0
 458              		.cfi_def_cfa_register 7
 459 0006 0346     		mov	r3, r0
 460 0008 FB71     		strb	r3, [r7, #7]
 530:.\Generated_Source\PSoC5/CAN_1_TX_RX_func.c ****     if ((CAN_1_RX[rxMailbox].rxcmd.byte[0u] & CAN_1_RX_ACK_MSG) == CAN_1_RX_ACK_MSG)
 461              		.loc 1 530 0
 462 000a FB79     		ldrb	r3, [r7, #7]	@ zero_extendqisi2
 463 000c 5A01     		lsls	r2, r3, #5
 464 000e 0D4B     		ldr	r3, .L42
 465 0010 1344     		add	r3, r3, r2
 466 0012 1B78     		ldrb	r3, [r3]
 467 0014 DBB2     		uxtb	r3, r3
 468 0016 03F00103 		and	r3, r3, #1
 469 001a 002B     		cmp	r3, #0
 470 001c 0DD0     		beq	.L40
 531:.\Generated_Source\PSoC5/CAN_1_TX_RX_func.c ****     {
 532:.\Generated_Source\PSoC5/CAN_1_TX_RX_func.c ****         /* `#START MESSAGE_BASIC_RECEIVED` */
 533:.\Generated_Source\PSoC5/CAN_1_TX_RX_func.c **** 
 534:.\Generated_Source\PSoC5/CAN_1_TX_RX_func.c ****         /* `#END` */
 535:.\Generated_Source\PSoC5/CAN_1_TX_RX_func.c ****         
 536:.\Generated_Source\PSoC5/CAN_1_TX_RX_func.c ****         CAN_1_RX[rxMailbox].rxcmd.byte[0u] |= CAN_1_RX_ACK_MSG;
 471              		.loc 1 536 0
 472 001e FB79     		ldrb	r3, [r7, #7]	@ zero_extendqisi2
 473 0020 5A01     		lsls	r2, r3, #5
 474 0022 084B     		ldr	r3, .L42
 475 0024 1344     		add	r3, r3, r2
 476 0026 FA79     		ldrb	r2, [r7, #7]	@ zero_extendqisi2
 477 0028 5101     		lsls	r1, r2, #5
 478 002a 064A     		ldr	r2, .L42
 479 002c 0A44     		add	r2, r2, r1
 480 002e 1278     		ldrb	r2, [r2]
 481 0030 D2B2     		uxtb	r2, r2
 482 0032 42F00102 		orr	r2, r2, #1
 483 0036 D2B2     		uxtb	r2, r2
 484 0038 1A70     		strb	r2, [r3]
ARM GAS  C:\Users\Schuyler\AppData\Local\Temp\ccI6WHHk.s 			page 19


 485              	.L40:
 537:.\Generated_Source\PSoC5/CAN_1_TX_RX_func.c ****     }
 538:.\Generated_Source\PSoC5/CAN_1_TX_RX_func.c **** }
 486              		.loc 1 538 0
 487 003a 0C37     		adds	r7, r7, #12
 488 003c BD46     		mov	sp, r7
 489              		@ sp needed
 490 003e 5DF8047B 		ldr	r7, [sp], #4
 491 0042 7047     		bx	lr
 492              	.L43:
 493              		.align	2
 494              	.L42:
 495 0044 A0A00040 		.word	1073782944
 496              		.cfi_endproc
 497              	.LFE4:
 498              		.size	CAN_1_ReceiveMsg, .-CAN_1_ReceiveMsg
 499              		.text
 500              	.Letext0:
 501              		.file 2 ".\\Generated_Source\\PSoC5\\cytypes.h"
 502              		.file 3 ".\\Generated_Source\\PSoC5\\CAN_1.h"